
termistor.elf:     file format elf32-avr

Sections:
Idx Name          Size      VMA       LMA       File off  Algn
  0 .data         00000000  00800100  00001882  00001916  2**0
                  CONTENTS, ALLOC, LOAD, DATA
  1 .text         00001882  00000000  00000000  00000094  2**1
                  CONTENTS, ALLOC, LOAD, READONLY, CODE
  2 .bss          00000014  00800100  00800100  00001916  2**0
                  ALLOC
  3 .stab         0000039c  00000000  00000000  00001918  2**2
                  CONTENTS, READONLY, DEBUGGING
  4 .stabstr      000002ba  00000000  00000000  00001cb4  2**0
                  CONTENTS, READONLY, DEBUGGING
  5 .comment      00000024  00000000  00000000  00001f6e  2**0
                  CONTENTS, READONLY
  6 .note.gnu.avr.deviceinfo 00000040  00000000  00000000  00001f94  2**2
                  CONTENTS, READONLY, OCTETS
  7 .debug_info   000005f4  00000000  00000000  00001fd4  2**0
                  CONTENTS, READONLY, DEBUGGING, OCTETS
  8 .debug_abbrev 000005a2  00000000  00000000  000025c8  2**0
                  CONTENTS, READONLY, DEBUGGING, OCTETS
  9 .debug_line   0000001d  00000000  00000000  00002b6a  2**0
                  CONTENTS, READONLY, DEBUGGING, OCTETS
 10 .debug_str    00000208  00000000  00000000  00002b87  2**0
                  CONTENTS, READONLY, DEBUGGING, OCTETS

Disassembly of section .text:

00000000 <__vectors>:
       0:	0c 94 dc 00 	jmp	0x1b8	; 0x1b8 <__ctors_end>
       4:	0c 94 ee 00 	jmp	0x1dc	; 0x1dc <__bad_interrupt>
       8:	0c 94 ee 00 	jmp	0x1dc	; 0x1dc <__bad_interrupt>
       c:	0c 94 ee 00 	jmp	0x1dc	; 0x1dc <__bad_interrupt>
      10:	0c 94 ee 00 	jmp	0x1dc	; 0x1dc <__bad_interrupt>
      14:	0c 94 ee 00 	jmp	0x1dc	; 0x1dc <__bad_interrupt>
      18:	0c 94 ee 00 	jmp	0x1dc	; 0x1dc <__bad_interrupt>
      1c:	0c 94 ee 00 	jmp	0x1dc	; 0x1dc <__bad_interrupt>
      20:	0c 94 ee 00 	jmp	0x1dc	; 0x1dc <__bad_interrupt>
      24:	0c 94 ee 00 	jmp	0x1dc	; 0x1dc <__bad_interrupt>
      28:	0c 94 ee 00 	jmp	0x1dc	; 0x1dc <__bad_interrupt>
      2c:	0c 94 ee 00 	jmp	0x1dc	; 0x1dc <__bad_interrupt>
      30:	0c 94 ee 00 	jmp	0x1dc	; 0x1dc <__bad_interrupt>
      34:	0c 94 ee 00 	jmp	0x1dc	; 0x1dc <__bad_interrupt>
      38:	0c 94 ee 00 	jmp	0x1dc	; 0x1dc <__bad_interrupt>
      3c:	0c 94 ee 00 	jmp	0x1dc	; 0x1dc <__bad_interrupt>
      40:	0c 94 ee 00 	jmp	0x1dc	; 0x1dc <__bad_interrupt>
      44:	0c 94 ee 00 	jmp	0x1dc	; 0x1dc <__bad_interrupt>
      48:	0c 94 ee 00 	jmp	0x1dc	; 0x1dc <__bad_interrupt>
      4c:	0c 94 ee 00 	jmp	0x1dc	; 0x1dc <__bad_interrupt>
      50:	0c 94 ee 00 	jmp	0x1dc	; 0x1dc <__bad_interrupt>
      54:	0c 94 ee 00 	jmp	0x1dc	; 0x1dc <__bad_interrupt>
      58:	0c 94 ee 00 	jmp	0x1dc	; 0x1dc <__bad_interrupt>
      5c:	0c 94 ee 00 	jmp	0x1dc	; 0x1dc <__bad_interrupt>
      60:	0c 94 ee 00 	jmp	0x1dc	; 0x1dc <__bad_interrupt>
      64:	0c 94 ee 00 	jmp	0x1dc	; 0x1dc <__bad_interrupt>

00000068 <__c.0>:
      68:	6e 61 6e 00                                         nan.

0000006c <__c.1>:
      6c:	69 6e 66 00 00 40 7a 10 f3 5a 00 a0 72 4e 18 09     inf..@z..Z..rN..
      7c:	00 10 a5 d4 e8 00 00 e8 76 48 17 00 00 e4 0b 54     ........vH.....T
      8c:	02 00 00 ca 9a 3b 00 00 00 e1 f5 05 00 00 80 96     .....;..........
      9c:	98 00 00 00 40 42 0f 00 00 00 a0 86 01 00 00 00     ....@B..........
      ac:	10 27 00 00 00 00 e8 03 00 00 00 00 64 00 00 00     .'..........d...
      bc:	00 00 0a 00 00 00 00 00 01 00 00 00 00 00 2c 76     ..............,v
      cc:	d8 88 dc 67 4f 08 23 df c1 df ae 59 e1 b1 b7 96     ...gO.#....Y....
      dc:	e5 e3 e4 53 c6 3a e6 51 99 76 96 e8 e6 c2 84 26     ...S.:.Q.v.....&
      ec:	eb 89 8c 9b 62 ed 40 7c 6f fc ef bc 9c 9f 40 f2     ....b.@|o.....@.
      fc:	ba a5 6f a5 f4 90 05 5a 2a f7 5c 93 6b 6c f9 67     ..o....Z*.\.kl.g
     10c:	6d c1 1b fc e0 e4 0d 47 fe f5 20 e6 b5 00 d0 ed     m......G.. .....
     11c:	90 2e 03 00 94 35 77 05 00 80 84 1e 08 00 00 20     .....5w........ 
     12c:	4e 0a 00 00 00 c8 0c 33 33 33 33 0f 98 6e 12 83     N......3333..n..
     13c:	11 41 ef 8d 21 14 89 3b e6 55 16 cf fe e6 db 18     .A..!..;.U......
     14c:	d1 84 4b 38 1b f7 7c 1d 90 1d a4 bb e4 24 20 32     ..K8..|......$ 2
     15c:	84 72 5e 22 81 00 c9 f1 24 ec a1 e5 3d 27           .r^"....$...='

0000016a <__c.0>:
     16a:	63 64 69 6e 6f 70 73 75 78 58 5b 65 66 67 45 46     cdinopsuxX[efgEF
     17a:	47 00                                               G.

0000017c <pstr_an>:
     17c:	61 6e 00                                            an.

0000017f <pstr_nfinity>:
     17f:	6e 66 69 6e 69 74 79 00                             nfinity.

00000187 <pwr_m10>:
     187:	cd cc cc 3d 0a d7 23 3c 17 b7 d1 38 77 cc 2b 32     ...=..#<...8w.+2
     197:	95 95 e6 24 1f b1 4f 0a                             ...$..O.

0000019f <pwr_p10>:
     19f:	00 00 20 41 00 00 c8 42 00 40 1c 46 20 bc be 4c     .. A...B.@.F ..L
     1af:	ca 1b 0e 5a ae c5 9d 74 00                          ...Z...t.

000001b8 <__ctors_end>:
     1b8:	11 24       	eor	r1, r1
     1ba:	1f be       	out	0x3f, r1	; 63
     1bc:	cf ef       	ldi	r28, 0xFF	; 255
     1be:	d8 e0       	ldi	r29, 0x08	; 8
     1c0:	de bf       	out	0x3e, r29	; 62
     1c2:	cd bf       	out	0x3d, r28	; 61

000001c4 <__do_clear_bss>:
     1c4:	21 e0       	ldi	r18, 0x01	; 1
     1c6:	a0 e0       	ldi	r26, 0x00	; 0
     1c8:	b1 e0       	ldi	r27, 0x01	; 1
     1ca:	01 c0       	rjmp	.+2      	; 0x1ce <.do_clear_bss_start>

000001cc <.do_clear_bss_loop>:
     1cc:	1d 92       	st	X+, r1

000001ce <.do_clear_bss_start>:
     1ce:	a4 31       	cpi	r26, 0x14	; 20
     1d0:	b2 07       	cpc	r27, r18
     1d2:	e1 f7       	brne	.-8      	; 0x1cc <.do_clear_bss_loop>
     1d4:	0e 94 19 01 	call	0x232	; 0x232 <main>
     1d8:	0c 94 3f 0c 	jmp	0x187e	; 0x187e <_exit>

000001dc <__bad_interrupt>:
     1dc:	0c 94 00 00 	jmp	0	; 0x0 <__vectors>

000001e0 <uart_transmit>:
     1e0:	90 91 c0 00 	lds	r25, 0x00C0	; 0x8000c0 <__TEXT_REGION_LENGTH__+0x7e00c0>
     1e4:	95 ff       	sbrs	r25, 5
     1e6:	fc cf       	rjmp	.-8      	; 0x1e0 <uart_transmit>
     1e8:	80 93 c6 00 	sts	0x00C6, r24	; 0x8000c6 <__TEXT_REGION_LENGTH__+0x7e00c6>
     1ec:	90 e0       	ldi	r25, 0x00	; 0
     1ee:	80 e0       	ldi	r24, 0x00	; 0
     1f0:	08 95       	ret

000001f2 <uart_receive>:
     1f2:	80 91 c0 00 	lds	r24, 0x00C0	; 0x8000c0 <__TEXT_REGION_LENGTH__+0x7e00c0>
     1f6:	87 ff       	sbrs	r24, 7
     1f8:	fc cf       	rjmp	.-8      	; 0x1f2 <uart_receive>
     1fa:	80 91 c6 00 	lds	r24, 0x00C6	; 0x8000c6 <__TEXT_REGION_LENGTH__+0x7e00c6>
     1fe:	90 e0       	ldi	r25, 0x00	; 0
     200:	08 95       	ret

00000202 <uart_init>:
     202:	87 e6       	ldi	r24, 0x67	; 103
     204:	90 e0       	ldi	r25, 0x00	; 0
     206:	90 93 c5 00 	sts	0x00C5, r25	; 0x8000c5 <__TEXT_REGION_LENGTH__+0x7e00c5>
     20a:	80 93 c4 00 	sts	0x00C4, r24	; 0x8000c4 <__TEXT_REGION_LENGTH__+0x7e00c4>
     20e:	88 e1       	ldi	r24, 0x18	; 24
     210:	80 93 c1 00 	sts	0x00C1, r24	; 0x8000c1 <__TEXT_REGION_LENGTH__+0x7e00c1>
     214:	86 e0       	ldi	r24, 0x06	; 6
     216:	80 93 c2 00 	sts	0x00C2, r24	; 0x8000c2 <__TEXT_REGION_LENGTH__+0x7e00c2>
     21a:	08 95       	ret

0000021c <adc_init>:
     21c:	80 e4       	ldi	r24, 0x40	; 64
     21e:	80 93 7c 00 	sts	0x007C, r24	; 0x80007c <__TEXT_REGION_LENGTH__+0x7e007c>
     222:	ea e7       	ldi	r30, 0x7A	; 122
     224:	f0 e0       	ldi	r31, 0x00	; 0
     226:	87 e0       	ldi	r24, 0x07	; 7
     228:	80 83       	st	Z, r24
     22a:	80 81       	ld	r24, Z
     22c:	80 68       	ori	r24, 0x80	; 128
     22e:	80 83       	st	Z, r24
     230:	08 95       	ret

00000232 <main>:
     232:	87 e6       	ldi	r24, 0x67	; 103
     234:	90 e0       	ldi	r25, 0x00	; 0
     236:	90 93 c5 00 	sts	0x00C5, r25	; 0x8000c5 <__TEXT_REGION_LENGTH__+0x7e00c5>
     23a:	80 93 c4 00 	sts	0x00C4, r24	; 0x8000c4 <__TEXT_REGION_LENGTH__+0x7e00c4>
     23e:	88 e1       	ldi	r24, 0x18	; 24
     240:	80 93 c1 00 	sts	0x00C1, r24	; 0x8000c1 <__TEXT_REGION_LENGTH__+0x7e00c1>
     244:	86 e0       	ldi	r24, 0x06	; 6
     246:	80 93 c2 00 	sts	0x00C2, r24	; 0x8000c2 <__TEXT_REGION_LENGTH__+0x7e00c2>
     24a:	80 e0       	ldi	r24, 0x00	; 0
     24c:	91 e0       	ldi	r25, 0x01	; 1
     24e:	20 ef       	ldi	r18, 0xF0	; 240
     250:	30 e0       	ldi	r19, 0x00	; 0
     252:	30 93 09 01 	sts	0x0109, r19	; 0x800109 <uart_file+0x9>
     256:	20 93 08 01 	sts	0x0108, r18	; 0x800108 <uart_file+0x8>
     25a:	29 ef       	ldi	r18, 0xF9	; 249
     25c:	30 e0       	ldi	r19, 0x00	; 0
     25e:	30 93 0b 01 	sts	0x010B, r19	; 0x80010b <uart_file+0xb>
     262:	20 93 0a 01 	sts	0x010A, r18	; 0x80010a <uart_file+0xa>
     266:	23 e0       	ldi	r18, 0x03	; 3
     268:	20 93 03 01 	sts	0x0103, r18	; 0x800103 <uart_file+0x3>
     26c:	10 92 0d 01 	sts	0x010D, r1	; 0x80010d <uart_file+0xd>
     270:	10 92 0c 01 	sts	0x010C, r1	; 0x80010c <uart_file+0xc>
     274:	90 93 13 01 	sts	0x0113, r25	; 0x800113 <__iob+0x5>
     278:	80 93 12 01 	sts	0x0112, r24	; 0x800112 <__iob+0x4>
     27c:	90 93 11 01 	sts	0x0111, r25	; 0x800111 <__iob+0x3>
     280:	80 93 10 01 	sts	0x0110, r24	; 0x800110 <__iob+0x2>
     284:	90 93 0f 01 	sts	0x010F, r25	; 0x80010f <__iob+0x1>
     288:	80 93 0e 01 	sts	0x010E, r24	; 0x80010e <__iob>
     28c:	80 e4       	ldi	r24, 0x40	; 64
     28e:	80 93 7c 00 	sts	0x007C, r24	; 0x80007c <__TEXT_REGION_LENGTH__+0x7e007c>
     292:	87 e0       	ldi	r24, 0x07	; 7
     294:	80 93 7a 00 	sts	0x007A, r24	; 0x80007a <__TEXT_REGION_LENGTH__+0x7e007a>
     298:	80 91 7a 00 	lds	r24, 0x007A	; 0x80007a <__TEXT_REGION_LENGTH__+0x7e007a>
     29c:	80 68       	ori	r24, 0x80	; 128
     29e:	80 93 7a 00 	sts	0x007A, r24	; 0x80007a <__TEXT_REGION_LENGTH__+0x7e007a>
     2a2:	52 9a       	sbi	0x0a, 2	; 10
     2a4:	80 91 7a 00 	lds	r24, 0x007A	; 0x80007a <__TEXT_REGION_LENGTH__+0x7e007a>
     2a8:	80 64       	ori	r24, 0x40	; 64
     2aa:	80 93 7a 00 	sts	0x007A, r24	; 0x80007a <__TEXT_REGION_LENGTH__+0x7e007a>
     2ae:	80 91 7a 00 	lds	r24, 0x007A	; 0x80007a <__TEXT_REGION_LENGTH__+0x7e007a>
     2b2:	84 ff       	sbrs	r24, 4
     2b4:	fc cf       	rjmp	.-8      	; 0x2ae <main+0x7c>
     2b6:	80 91 7a 00 	lds	r24, 0x007A	; 0x80007a <__TEXT_REGION_LENGTH__+0x7e007a>
     2ba:	80 61       	ori	r24, 0x10	; 16
     2bc:	80 93 7a 00 	sts	0x007A, r24	; 0x80007a <__TEXT_REGION_LENGTH__+0x7e007a>
     2c0:	80 91 78 00 	lds	r24, 0x0078	; 0x800078 <__TEXT_REGION_LENGTH__+0x7e0078>
     2c4:	90 91 79 00 	lds	r25, 0x0079	; 0x800079 <__TEXT_REGION_LENGTH__+0x7e0079>
     2c8:	5a 9a       	sbi	0x0b, 2	; 11
     2ca:	01 96       	adiw	r24, 0x01	; 1
     2cc:	5a 98       	cbi	0x0b, 2	; 11
     2ce:	18 16       	cp	r1, r24
     2d0:	19 06       	cpc	r1, r25
     2d2:	44 f7       	brge	.-48     	; 0x2a4 <main+0x72>
     2d4:	ef e8       	ldi	r30, 0x8F	; 143
     2d6:	f1 e0       	ldi	r31, 0x01	; 1
     2d8:	31 97       	sbiw	r30, 0x01	; 1
     2da:	f1 f7       	brne	.-4      	; 0x2d8 <main+0xa6>
     2dc:	00 c0       	rjmp	.+0      	; 0x2de <main+0xac>
     2de:	00 00       	nop
     2e0:	95 95       	asr	r25
     2e2:	87 95       	ror	r24
     2e4:	00 97       	sbiw	r24, 0x00	; 0
     2e6:	b1 f7       	brne	.-20     	; 0x2d4 <main+0xa2>
     2e8:	dd cf       	rjmp	.-70     	; 0x2a4 <main+0x72>

000002ea <putval>:
     2ea:	fc 01       	movw	r30, r24
     2ec:	ca 01       	movw	r24, r20
     2ee:	db 01       	movw	r26, r22
     2f0:	20 fd       	sbrc	r18, 0
     2f2:	08 c0       	rjmp	.+16     	; 0x304 <putval+0x1a>
     2f4:	23 fd       	sbrc	r18, 3
     2f6:	05 c0       	rjmp	.+10     	; 0x302 <putval+0x18>
     2f8:	22 ff       	sbrs	r18, 2
     2fa:	02 c0       	rjmp	.+4      	; 0x300 <putval+0x16>
     2fc:	b3 83       	std	Z+3, r27	; 0x03
     2fe:	a2 83       	std	Z+2, r26	; 0x02
     300:	91 83       	std	Z+1, r25	; 0x01
     302:	80 83       	st	Z, r24
     304:	08 95       	ret

00000306 <mulacc>:
     306:	cf 92       	push	r12
     308:	df 92       	push	r13
     30a:	ef 92       	push	r14
     30c:	ff 92       	push	r15
     30e:	cf 93       	push	r28
     310:	df 93       	push	r29
     312:	00 d0       	rcall	.+0      	; 0x314 <mulacc+0xe>
     314:	00 d0       	rcall	.+0      	; 0x316 <mulacc+0x10>
     316:	cd b7       	in	r28, 0x3d	; 61
     318:	de b7       	in	r29, 0x3e	; 62
     31a:	6b 01       	movw	r12, r22
     31c:	7c 01       	movw	r14, r24
     31e:	83 e0       	ldi	r24, 0x03	; 3
     320:	44 fd       	sbrc	r20, 4
     322:	10 c0       	rjmp	.+32     	; 0x344 <mulacc+0x3e>
     324:	84 e0       	ldi	r24, 0x04	; 4
     326:	46 fd       	sbrc	r20, 6
     328:	0d c0       	rjmp	.+26     	; 0x344 <mulacc+0x3e>
     32a:	d6 01       	movw	r26, r12
     32c:	f7 01       	movw	r30, r14
     32e:	aa 0f       	add	r26, r26
     330:	bb 1f       	adc	r27, r27
     332:	ee 1f       	adc	r30, r30
     334:	ff 1f       	adc	r31, r31
     336:	10 94       	com	r1
     338:	d1 f7       	brne	.-12     	; 0x32e <mulacc+0x28>
     33a:	ca 0e       	add	r12, r26
     33c:	db 1e       	adc	r13, r27
     33e:	ee 1e       	adc	r14, r30
     340:	ff 1e       	adc	r15, r31
     342:	81 e0       	ldi	r24, 0x01	; 1
     344:	cc 0c       	add	r12, r12
     346:	dd 1c       	adc	r13, r13
     348:	ee 1c       	adc	r14, r14
     34a:	ff 1c       	adc	r15, r15
     34c:	81 50       	subi	r24, 0x01	; 1
     34e:	d1 f7       	brne	.-12     	; 0x344 <mulacc+0x3e>
     350:	d7 01       	movw	r26, r14
     352:	c6 01       	movw	r24, r12
     354:	82 0f       	add	r24, r18
     356:	91 1d       	adc	r25, r1
     358:	a1 1d       	adc	r26, r1
     35a:	b1 1d       	adc	r27, r1
     35c:	bc 01       	movw	r22, r24
     35e:	cd 01       	movw	r24, r26
     360:	0f 90       	pop	r0
     362:	0f 90       	pop	r0
     364:	0f 90       	pop	r0
     366:	0f 90       	pop	r0
     368:	df 91       	pop	r29
     36a:	cf 91       	pop	r28
     36c:	ff 90       	pop	r15
     36e:	ef 90       	pop	r14
     370:	df 90       	pop	r13
     372:	cf 90       	pop	r12
     374:	08 95       	ret

00000376 <skip_spaces>:
     376:	0f 93       	push	r16
     378:	1f 93       	push	r17
     37a:	cf 93       	push	r28
     37c:	df 93       	push	r29
     37e:	8c 01       	movw	r16, r24
     380:	c8 01       	movw	r24, r16
     382:	0e 94 58 0b 	call	0x16b0	; 0x16b0 <fgetc>
     386:	ec 01       	movw	r28, r24
     388:	97 fd       	sbrc	r25, 7
     38a:	08 c0       	rjmp	.+16     	; 0x39c <skip_spaces+0x26>
     38c:	0e 94 26 0b 	call	0x164c	; 0x164c <isspace>
     390:	89 2b       	or	r24, r25
     392:	b1 f7       	brne	.-20     	; 0x380 <skip_spaces+0xa>
     394:	b8 01       	movw	r22, r16
     396:	ce 01       	movw	r24, r28
     398:	0e 94 c6 0b 	call	0x178c	; 0x178c <ungetc>
     39c:	ce 01       	movw	r24, r28
     39e:	df 91       	pop	r29
     3a0:	cf 91       	pop	r28
     3a2:	1f 91       	pop	r17
     3a4:	0f 91       	pop	r16
     3a6:	08 95       	ret

000003a8 <conv_int>:
     3a8:	b0 e0       	ldi	r27, 0x00	; 0
     3aa:	a0 e0       	ldi	r26, 0x00	; 0
     3ac:	ea ed       	ldi	r30, 0xDA	; 218
     3ae:	f1 e0       	ldi	r31, 0x01	; 1
     3b0:	0c 94 23 09 	jmp	0x1246	; 0x1246 <__prologue_saves__+0xe>
     3b4:	b8 2e       	mov	r11, r24
     3b6:	d9 2f       	mov	r29, r25
     3b8:	8b 01       	movw	r16, r22
     3ba:	94 2e       	mov	r9, r20
     3bc:	a5 2e       	mov	r10, r21
     3be:	f2 2e       	mov	r15, r18
     3c0:	0e 94 58 0b 	call	0x16b0	; 0x16b0 <fgetc>
     3c4:	fc 01       	movw	r30, r24
     3c6:	99 27       	eor	r25, r25
     3c8:	eb 32       	cpi	r30, 0x2B	; 43
     3ca:	21 f0       	breq	.+8      	; 0x3d4 <conv_int+0x2c>
     3cc:	8d 97       	sbiw	r24, 0x2d	; 45
     3ce:	91 f4       	brne	.+36     	; 0x3f4 <conv_int+0x4c>
     3d0:	68 94       	set
     3d2:	f7 f8       	bld	r15, 7
     3d4:	01 50       	subi	r16, 0x01	; 1
     3d6:	11 09       	sbc	r17, r1
     3d8:	31 f4       	brne	.+12     	; 0x3e6 <conv_int+0x3e>
     3da:	80 e0       	ldi	r24, 0x00	; 0
     3dc:	cd b7       	in	r28, 0x3d	; 61
     3de:	de b7       	in	r29, 0x3e	; 62
     3e0:	eb e0       	ldi	r30, 0x0B	; 11
     3e2:	0c 94 3f 09 	jmp	0x127e	; 0x127e <__epilogue_restores__+0xe>
     3e6:	8b 2d       	mov	r24, r11
     3e8:	9d 2f       	mov	r25, r29
     3ea:	0e 94 58 0b 	call	0x16b0	; 0x16b0 <fgetc>
     3ee:	fc 01       	movw	r30, r24
     3f0:	97 fd       	sbrc	r25, 7
     3f2:	f3 cf       	rjmp	.-26     	; 0x3da <conv_int+0x32>
     3f4:	cf 2d       	mov	r28, r15
     3f6:	cd 7f       	andi	r28, 0xFD	; 253
     3f8:	8f 2d       	mov	r24, r15
     3fa:	80 73       	andi	r24, 0x30	; 48
     3fc:	21 f5       	brne	.+72     	; 0x446 <__FUSE_REGION_LENGTH__+0x46>
     3fe:	e0 33       	cpi	r30, 0x30	; 48
     400:	11 f5       	brne	.+68     	; 0x446 <__FUSE_REGION_LENGTH__+0x46>
     402:	68 01       	movw	r12, r16
     404:	81 e0       	ldi	r24, 0x01	; 1
     406:	c8 1a       	sub	r12, r24
     408:	d1 08       	sbc	r13, r1
     40a:	a9 f0       	breq	.+42     	; 0x436 <__FUSE_REGION_LENGTH__+0x36>
     40c:	8b 2d       	mov	r24, r11
     40e:	9d 2f       	mov	r25, r29
     410:	0e 94 58 0b 	call	0x16b0	; 0x16b0 <fgetc>
     414:	fc 01       	movw	r30, r24
     416:	97 fd       	sbrc	r25, 7
     418:	0e c0       	rjmp	.+28     	; 0x436 <__FUSE_REGION_LENGTH__+0x36>
     41a:	8f 7d       	andi	r24, 0xDF	; 223
     41c:	88 35       	cpi	r24, 0x58	; 88
     41e:	79 f4       	brne	.+30     	; 0x43e <__FUSE_REGION_LENGTH__+0x3e>
     420:	c2 64       	ori	r28, 0x42	; 66
     422:	02 50       	subi	r16, 0x02	; 2
     424:	11 09       	sbc	r17, r1
     426:	39 f0       	breq	.+14     	; 0x436 <__FUSE_REGION_LENGTH__+0x36>
     428:	8b 2d       	mov	r24, r11
     42a:	9d 2f       	mov	r25, r29
     42c:	0e 94 58 0b 	call	0x16b0	; 0x16b0 <fgetc>
     430:	fc 01       	movw	r30, r24
     432:	97 ff       	sbrs	r25, 7
     434:	08 c0       	rjmp	.+16     	; 0x446 <__FUSE_REGION_LENGTH__+0x46>
     436:	c1 2c       	mov	r12, r1
     438:	d1 2c       	mov	r13, r1
     43a:	76 01       	movw	r14, r12
     43c:	1d c0       	rjmp	.+58     	; 0x478 <__FUSE_REGION_LENGTH__+0x78>
     43e:	f6 fe       	sbrs	r15, 6
     440:	2e c0       	rjmp	.+92     	; 0x49e <__FUSE_REGION_LENGTH__+0x9e>
     442:	c2 60       	ori	r28, 0x02	; 2
     444:	86 01       	movw	r16, r12
     446:	c1 2c       	mov	r12, r1
     448:	d1 2c       	mov	r13, r1
     44a:	76 01       	movw	r14, r12
     44c:	20 ed       	ldi	r18, 0xD0	; 208
     44e:	2e 0f       	add	r18, r30
     450:	28 30       	cpi	r18, 0x08	; 8
     452:	40 f1       	brcs	.+80     	; 0x4a4 <__FUSE_REGION_LENGTH__+0xa4>
     454:	c4 fd       	sbrc	r28, 4
     456:	09 c0       	rjmp	.+18     	; 0x46a <__FUSE_REGION_LENGTH__+0x6a>
     458:	2a 30       	cpi	r18, 0x0A	; 10
     45a:	20 f1       	brcs	.+72     	; 0x4a4 <__FUSE_REGION_LENGTH__+0xa4>
     45c:	c6 ff       	sbrs	r28, 6
     45e:	05 c0       	rjmp	.+10     	; 0x46a <__FUSE_REGION_LENGTH__+0x6a>
     460:	2f 7d       	andi	r18, 0xDF	; 223
     462:	8f ee       	ldi	r24, 0xEF	; 239
     464:	82 0f       	add	r24, r18
     466:	86 30       	cpi	r24, 0x06	; 6
     468:	e0 f0       	brcs	.+56     	; 0x4a2 <__FUSE_REGION_LENGTH__+0xa2>
     46a:	6b 2d       	mov	r22, r11
     46c:	7d 2f       	mov	r23, r29
     46e:	cf 01       	movw	r24, r30
     470:	0e 94 c6 0b 	call	0x178c	; 0x178c <ungetc>
     474:	c1 ff       	sbrs	r28, 1
     476:	b1 cf       	rjmp	.-158    	; 0x3da <conv_int+0x32>
     478:	c7 ff       	sbrs	r28, 7
     47a:	08 c0       	rjmp	.+16     	; 0x48c <__FUSE_REGION_LENGTH__+0x8c>
     47c:	f0 94       	com	r15
     47e:	e0 94       	com	r14
     480:	d0 94       	com	r13
     482:	c0 94       	com	r12
     484:	c1 1c       	adc	r12, r1
     486:	d1 1c       	adc	r13, r1
     488:	e1 1c       	adc	r14, r1
     48a:	f1 1c       	adc	r15, r1
     48c:	2c 2f       	mov	r18, r28
     48e:	b7 01       	movw	r22, r14
     490:	a6 01       	movw	r20, r12
     492:	89 2d       	mov	r24, r9
     494:	9a 2d       	mov	r25, r10
     496:	0e 94 75 01 	call	0x2ea	; 0x2ea <putval>
     49a:	81 e0       	ldi	r24, 0x01	; 1
     49c:	9f cf       	rjmp	.-194    	; 0x3dc <conv_int+0x34>
     49e:	c2 61       	ori	r28, 0x12	; 18
     4a0:	d1 cf       	rjmp	.-94     	; 0x444 <__FUSE_REGION_LENGTH__+0x44>
     4a2:	27 50       	subi	r18, 0x07	; 7
     4a4:	4c 2f       	mov	r20, r28
     4a6:	c7 01       	movw	r24, r14
     4a8:	b6 01       	movw	r22, r12
     4aa:	0e 94 83 01 	call	0x306	; 0x306 <mulacc>
     4ae:	6b 01       	movw	r12, r22
     4b0:	7c 01       	movw	r14, r24
     4b2:	c2 60       	ori	r28, 0x02	; 2
     4b4:	01 50       	subi	r16, 0x01	; 1
     4b6:	11 09       	sbc	r17, r1
     4b8:	f9 f2       	breq	.-66     	; 0x478 <__FUSE_REGION_LENGTH__+0x78>
     4ba:	8b 2d       	mov	r24, r11
     4bc:	9d 2f       	mov	r25, r29
     4be:	0e 94 58 0b 	call	0x16b0	; 0x16b0 <fgetc>
     4c2:	fc 01       	movw	r30, r24
     4c4:	97 ff       	sbrs	r25, 7
     4c6:	c2 cf       	rjmp	.-124    	; 0x44c <__FUSE_REGION_LENGTH__+0x4c>
     4c8:	d7 cf       	rjmp	.-82     	; 0x478 <__FUSE_REGION_LENGTH__+0x78>

000004ca <conv_brk>:
     4ca:	a0 e2       	ldi	r26, 0x20	; 32
     4cc:	b0 e0       	ldi	r27, 0x00	; 0
     4ce:	eb e6       	ldi	r30, 0x6B	; 107
     4d0:	f2 e0       	ldi	r31, 0x02	; 2
     4d2:	0c 94 21 09 	jmp	0x1242	; 0x1242 <__prologue_saves__+0xa>
     4d6:	5c 01       	movw	r10, r24
     4d8:	6b 01       	movw	r12, r22
     4da:	7a 01       	movw	r14, r20
     4dc:	ce 01       	movw	r24, r28
     4de:	01 96       	adiw	r24, 0x01	; 1
     4e0:	4c 01       	movw	r8, r24
     4e2:	80 e2       	ldi	r24, 0x20	; 32
     4e4:	f4 01       	movw	r30, r8
     4e6:	11 92       	st	Z+, r1
     4e8:	8a 95       	dec	r24
     4ea:	e9 f7       	brne	.-6      	; 0x4e6 <conv_brk+0x1c>
     4ec:	f5 01       	movw	r30, r10
     4ee:	73 80       	ldd	r7, Z+3	; 0x03
     4f0:	89 01       	movw	r16, r18
     4f2:	50 e0       	ldi	r21, 0x00	; 0
     4f4:	40 e0       	ldi	r20, 0x00	; 0
     4f6:	b0 e0       	ldi	r27, 0x00	; 0
     4f8:	20 e0       	ldi	r18, 0x00	; 0
     4fa:	a0 e0       	ldi	r26, 0x00	; 0
     4fc:	61 e0       	ldi	r22, 0x01	; 1
     4fe:	70 e0       	ldi	r23, 0x00	; 0
     500:	f8 01       	movw	r30, r16
     502:	73 fc       	sbrc	r7, 3
     504:	95 91       	lpm	r25, Z+
     506:	73 fe       	sbrs	r7, 3
     508:	91 91       	ld	r25, Z+
     50a:	89 2f       	mov	r24, r25
     50c:	8f 01       	movw	r16, r30
     50e:	91 11       	cpse	r25, r1
     510:	07 c0       	rjmp	.+14     	; 0x520 <conv_brk+0x56>
     512:	10 e0       	ldi	r17, 0x00	; 0
     514:	00 e0       	ldi	r16, 0x00	; 0
     516:	c8 01       	movw	r24, r16
     518:	a0 96       	adiw	r28, 0x20	; 32
     51a:	ed e0       	ldi	r30, 0x0D	; 13
     51c:	0c 94 3d 09 	jmp	0x127a	; 0x127a <__epilogue_restores__+0xa>
     520:	9e 35       	cpi	r25, 0x5E	; 94
     522:	19 f4       	brne	.+6      	; 0x52a <conv_brk+0x60>
     524:	41 15       	cp	r20, r1
     526:	51 05       	cpc	r21, r1
     528:	31 f1       	breq	.+76     	; 0x576 <conv_brk+0xac>
     52a:	a4 17       	cp	r26, r20
     52c:	15 06       	cpc	r1, r21
     52e:	ec f4       	brge	.+58     	; 0x56a <conv_brk+0xa0>
     530:	9d 35       	cpi	r25, 0x5D	; 93
     532:	49 f1       	breq	.+82     	; 0x586 <conv_brk+0xbc>
     534:	9d 32       	cpi	r25, 0x2D	; 45
     536:	c9 f4       	brne	.+50     	; 0x56a <conv_brk+0xa0>
     538:	22 23       	and	r18, r18
     53a:	09 f1       	breq	.+66     	; 0x57e <conv_brk+0xb4>
     53c:	98 2f       	mov	r25, r24
     53e:	96 95       	lsr	r25
     540:	96 95       	lsr	r25
     542:	96 95       	lsr	r25
     544:	f4 01       	movw	r30, r8
     546:	e9 0f       	add	r30, r25
     548:	f1 1d       	adc	r31, r1
     54a:	98 2f       	mov	r25, r24
     54c:	97 70       	andi	r25, 0x07	; 7
     54e:	9b 01       	movw	r18, r22
     550:	01 c0       	rjmp	.+2      	; 0x554 <conv_brk+0x8a>
     552:	22 0f       	add	r18, r18
     554:	9a 95       	dec	r25
     556:	ea f7       	brpl	.-6      	; 0x552 <conv_brk+0x88>
     558:	90 81       	ld	r25, Z
     55a:	29 2b       	or	r18, r25
     55c:	20 83       	st	Z, r18
     55e:	8b 17       	cp	r24, r27
     560:	81 f0       	breq	.+32     	; 0x582 <conv_brk+0xb8>
     562:	8b 17       	cp	r24, r27
     564:	30 f4       	brcc	.+12     	; 0x572 <conv_brk+0xa8>
     566:	8f 5f       	subi	r24, 0xFF	; 255
     568:	e9 cf       	rjmp	.-46     	; 0x53c <conv_brk+0x72>
     56a:	21 11       	cpse	r18, r1
     56c:	e7 cf       	rjmp	.-50     	; 0x53c <conv_brk+0x72>
     56e:	b9 2f       	mov	r27, r25
     570:	e5 cf       	rjmp	.-54     	; 0x53c <conv_brk+0x72>
     572:	81 50       	subi	r24, 0x01	; 1
     574:	e3 cf       	rjmp	.-58     	; 0x53c <conv_brk+0x72>
     576:	a1 e0       	ldi	r26, 0x01	; 1
     578:	4f 5f       	subi	r20, 0xFF	; 255
     57a:	5f 4f       	sbci	r21, 0xFF	; 255
     57c:	c1 cf       	rjmp	.-126    	; 0x500 <conv_brk+0x36>
     57e:	21 e0       	ldi	r18, 0x01	; 1
     580:	fb cf       	rjmp	.-10     	; 0x578 <conv_brk+0xae>
     582:	20 e0       	ldi	r18, 0x00	; 0
     584:	f9 cf       	rjmp	.-14     	; 0x578 <conv_brk+0xae>
     586:	22 23       	and	r18, r18
     588:	19 f0       	breq	.+6      	; 0x590 <conv_brk+0xc6>
     58a:	8e 81       	ldd	r24, Y+6	; 0x06
     58c:	80 62       	ori	r24, 0x20	; 32
     58e:	8e 83       	std	Y+6, r24	; 0x06
     590:	aa 23       	and	r26, r26
     592:	61 f0       	breq	.+24     	; 0x5ac <conv_brk+0xe2>
     594:	f4 01       	movw	r30, r8
     596:	9e 01       	movw	r18, r28
     598:	2f 5d       	subi	r18, 0xDF	; 223
     59a:	3f 4f       	sbci	r19, 0xFF	; 255
     59c:	80 81       	ld	r24, Z
     59e:	df 01       	movw	r26, r30
     5a0:	31 96       	adiw	r30, 0x01	; 1
     5a2:	80 95       	com	r24
     5a4:	8c 93       	st	X, r24
     5a6:	e2 17       	cp	r30, r18
     5a8:	f3 07       	cpc	r31, r19
     5aa:	c1 f7       	brne	.-16     	; 0x59c <conv_brk+0xd2>
     5ac:	77 24       	eor	r7, r7
     5ae:	73 94       	inc	r7
     5b0:	c5 01       	movw	r24, r10
     5b2:	0e 94 58 0b 	call	0x16b0	; 0x16b0 <fgetc>
     5b6:	97 fd       	sbrc	r25, 7
     5b8:	16 c0       	rjmp	.+44     	; 0x5e6 <conv_brk+0x11c>
     5ba:	28 2f       	mov	r18, r24
     5bc:	26 95       	lsr	r18
     5be:	26 95       	lsr	r18
     5c0:	26 95       	lsr	r18
     5c2:	f4 01       	movw	r30, r8
     5c4:	e2 0f       	add	r30, r18
     5c6:	f1 1d       	adc	r31, r1
     5c8:	20 81       	ld	r18, Z
     5ca:	30 e0       	ldi	r19, 0x00	; 0
     5cc:	ac 01       	movw	r20, r24
     5ce:	47 70       	andi	r20, 0x07	; 7
     5d0:	55 27       	eor	r21, r21
     5d2:	02 c0       	rjmp	.+4      	; 0x5d8 <conv_brk+0x10e>
     5d4:	35 95       	asr	r19
     5d6:	27 95       	ror	r18
     5d8:	4a 95       	dec	r20
     5da:	e2 f7       	brpl	.-8      	; 0x5d4 <conv_brk+0x10a>
     5dc:	20 fd       	sbrc	r18, 0
     5de:	06 c0       	rjmp	.+12     	; 0x5ec <conv_brk+0x122>
     5e0:	b5 01       	movw	r22, r10
     5e2:	0e 94 c6 0b 	call	0x178c	; 0x178c <ungetc>
     5e6:	77 20       	and	r7, r7
     5e8:	61 f0       	breq	.+24     	; 0x602 <conv_brk+0x138>
     5ea:	93 cf       	rjmp	.-218    	; 0x512 <conv_brk+0x48>
     5ec:	e1 14       	cp	r14, r1
     5ee:	f1 04       	cpc	r15, r1
     5f0:	19 f0       	breq	.+6      	; 0x5f8 <conv_brk+0x12e>
     5f2:	f7 01       	movw	r30, r14
     5f4:	81 93       	st	Z+, r24
     5f6:	7f 01       	movw	r14, r30
     5f8:	f1 e0       	ldi	r31, 0x01	; 1
     5fa:	cf 1a       	sub	r12, r31
     5fc:	d1 08       	sbc	r13, r1
     5fe:	71 2c       	mov	r7, r1
     600:	b9 f6       	brne	.-82     	; 0x5b0 <conv_brk+0xe6>
     602:	e1 14       	cp	r14, r1
     604:	f1 04       	cpc	r15, r1
     606:	09 f4       	brne	.+2      	; 0x60a <conv_brk+0x140>
     608:	86 cf       	rjmp	.-244    	; 0x516 <conv_brk+0x4c>
     60a:	f7 01       	movw	r30, r14
     60c:	10 82       	st	Z, r1
     60e:	83 cf       	rjmp	.-250    	; 0x516 <conv_brk+0x4c>

00000610 <conv_flt>:
     610:	aa e0       	ldi	r26, 0x0A	; 10
     612:	b0 e0       	ldi	r27, 0x00	; 0
     614:	ee e0       	ldi	r30, 0x0E	; 14
     616:	f3 e0       	ldi	r31, 0x03	; 3
     618:	0c 94 21 09 	jmp	0x1242	; 0x1242 <__prologue_saves__+0xa>
     61c:	78 2e       	mov	r7, r24
     61e:	c9 2e       	mov	r12, r25
     620:	8b 01       	movw	r16, r22
     622:	5a 01       	movw	r10, r20
     624:	0e 94 58 0b 	call	0x16b0	; 0x16b0 <fgetc>
     628:	89 87       	std	Y+9, r24	; 0x09
     62a:	9a 87       	std	Y+10, r25	; 0x0a
     62c:	89 85       	ldd	r24, Y+9	; 0x09
     62e:	9a 85       	ldd	r25, Y+10	; 0x0a
     630:	99 27       	eor	r25, r25
     632:	29 85       	ldd	r18, Y+9	; 0x09
     634:	2b 32       	cpi	r18, 0x2B	; 43
     636:	31 f0       	breq	.+12     	; 0x644 <conv_flt+0x34>
     638:	50 e8       	ldi	r21, 0x80	; 128
     63a:	95 2e       	mov	r9, r21
     63c:	8d 97       	sbiw	r24, 0x2d	; 45
     63e:	19 f0       	breq	.+6      	; 0x646 <conv_flt+0x36>
     640:	91 2c       	mov	r9, r1
     642:	13 c0       	rjmp	.+38     	; 0x66a <conv_flt+0x5a>
     644:	91 2c       	mov	r9, r1
     646:	01 50       	subi	r16, 0x01	; 1
     648:	11 09       	sbc	r17, r1
     64a:	29 f4       	brne	.+10     	; 0x656 <conv_flt+0x46>
     64c:	80 e0       	ldi	r24, 0x00	; 0
     64e:	2a 96       	adiw	r28, 0x0a	; 10
     650:	ed e0       	ldi	r30, 0x0D	; 13
     652:	0c 94 3d 09 	jmp	0x127a	; 0x127a <__epilogue_restores__+0xa>
     656:	87 2d       	mov	r24, r7
     658:	9c 2d       	mov	r25, r12
     65a:	0e 94 58 0b 	call	0x16b0	; 0x16b0 <fgetc>
     65e:	89 87       	std	Y+9, r24	; 0x09
     660:	9a 87       	std	Y+10, r25	; 0x0a
     662:	89 85       	ldd	r24, Y+9	; 0x09
     664:	9a 85       	ldd	r25, Y+10	; 0x0a
     666:	97 fd       	sbrc	r25, 7
     668:	f1 cf       	rjmp	.-30     	; 0x64c <conv_flt+0x3c>
     66a:	89 85       	ldd	r24, Y+9	; 0x09
     66c:	9a 85       	ldd	r25, Y+10	; 0x0a
     66e:	0e 94 2f 0b 	call	0x165e	; 0x165e <tolower>
     672:	89 36       	cpi	r24, 0x69	; 105
     674:	91 05       	cpc	r25, r1
     676:	09 f4       	brne	.+2      	; 0x67a <conv_flt+0x6a>
     678:	d8 c0       	rjmp	.+432    	; 0x82a <conv_flt+0x21a>
     67a:	8e 36       	cpi	r24, 0x6E	; 110
     67c:	91 05       	cpc	r25, r1
     67e:	09 f4       	brne	.+2      	; 0x682 <conv_flt+0x72>
     680:	ea c0       	rjmp	.+468    	; 0x856 <conv_flt+0x246>
     682:	19 82       	std	Y+1, r1	; 0x01
     684:	1a 82       	std	Y+2, r1	; 0x02
     686:	1b 82       	std	Y+3, r1	; 0x03
     688:	1c 82       	std	Y+4, r1	; 0x04
     68a:	f1 2c       	mov	r15, r1
     68c:	e1 2c       	mov	r14, r1
     68e:	29 85       	ldd	r18, Y+9	; 0x09
     690:	20 53       	subi	r18, 0x30	; 48
     692:	d9 2c       	mov	r13, r9
     694:	2a 30       	cpi	r18, 0x0A	; 10
     696:	08 f0       	brcs	.+2      	; 0x69a <conv_flt+0x8a>
     698:	03 c1       	rjmp	.+518    	; 0x8a0 <conv_flt+0x290>
     69a:	68 94       	set
     69c:	d1 f8       	bld	r13, 1
     69e:	89 2d       	mov	r24, r9
     6a0:	88 70       	andi	r24, 0x08	; 8
     6a2:	92 fe       	sbrs	r9, 2
     6a4:	df c0       	rjmp	.+446    	; 0x864 <conv_flt+0x254>
     6a6:	81 11       	cpse	r24, r1
     6a8:	03 c0       	rjmp	.+6      	; 0x6b0 <conv_flt+0xa0>
     6aa:	ff ef       	ldi	r31, 0xFF	; 255
     6ac:	ef 1a       	sub	r14, r31
     6ae:	ff 0a       	sbc	r15, r31
     6b0:	01 50       	subi	r16, 0x01	; 1
     6b2:	11 09       	sbc	r17, r1
     6b4:	51 f0       	breq	.+20     	; 0x6ca <conv_flt+0xba>
     6b6:	87 2d       	mov	r24, r7
     6b8:	9c 2d       	mov	r25, r12
     6ba:	0e 94 58 0b 	call	0x16b0	; 0x16b0 <fgetc>
     6be:	89 87       	std	Y+9, r24	; 0x09
     6c0:	9a 87       	std	Y+10, r25	; 0x0a
     6c2:	29 85       	ldd	r18, Y+9	; 0x09
     6c4:	3a 85       	ldd	r19, Y+10	; 0x0a
     6c6:	37 ff       	sbrs	r19, 7
     6c8:	cb c0       	rjmp	.+406    	; 0x860 <conv_flt+0x250>
     6ca:	d1 fe       	sbrs	r13, 1
     6cc:	bf cf       	rjmp	.-130    	; 0x64c <conv_flt+0x3c>
     6ce:	89 85       	ldd	r24, Y+9	; 0x09
     6d0:	8f 7d       	andi	r24, 0xDF	; 223
     6d2:	85 34       	cpi	r24, 0x45	; 69
     6d4:	09 f0       	breq	.+2      	; 0x6d8 <conv_flt+0xc8>
     6d6:	53 c0       	rjmp	.+166    	; 0x77e <conv_flt+0x16e>
     6d8:	48 01       	movw	r8, r16
     6da:	31 e0       	ldi	r19, 0x01	; 1
     6dc:	83 1a       	sub	r8, r19
     6de:	91 08       	sbc	r9, r1
     6e0:	09 f4       	brne	.+2      	; 0x6e4 <conv_flt+0xd4>
     6e2:	b4 cf       	rjmp	.-152    	; 0x64c <conv_flt+0x3c>
     6e4:	87 2d       	mov	r24, r7
     6e6:	9c 2d       	mov	r25, r12
     6e8:	0e 94 58 0b 	call	0x16b0	; 0x16b0 <fgetc>
     6ec:	89 87       	std	Y+9, r24	; 0x09
     6ee:	9a 87       	std	Y+10, r25	; 0x0a
     6f0:	89 85       	ldd	r24, Y+9	; 0x09
     6f2:	9a 85       	ldd	r25, Y+10	; 0x0a
     6f4:	97 fd       	sbrc	r25, 7
     6f6:	aa cf       	rjmp	.-172    	; 0x64c <conv_flt+0x3c>
     6f8:	99 27       	eor	r25, r25
     6fa:	a9 85       	ldd	r26, Y+9	; 0x09
     6fc:	ab 32       	cpi	r26, 0x2B	; 43
     6fe:	21 f0       	breq	.+8      	; 0x708 <conv_flt+0xf8>
     700:	8d 97       	sbiw	r24, 0x2d	; 45
     702:	71 f4       	brne	.+28     	; 0x720 <conv_flt+0x110>
     704:	68 94       	set
     706:	d4 f8       	bld	r13, 4
     708:	48 01       	movw	r8, r16
     70a:	b2 e0       	ldi	r27, 0x02	; 2
     70c:	8b 1a       	sub	r8, r27
     70e:	91 08       	sbc	r9, r1
     710:	09 f4       	brne	.+2      	; 0x714 <conv_flt+0x104>
     712:	9c cf       	rjmp	.-200    	; 0x64c <conv_flt+0x3c>
     714:	87 2d       	mov	r24, r7
     716:	9c 2d       	mov	r25, r12
     718:	0e 94 58 0b 	call	0x16b0	; 0x16b0 <fgetc>
     71c:	89 87       	std	Y+9, r24	; 0x09
     71e:	9a 87       	std	Y+10, r25	; 0x0a
     720:	89 85       	ldd	r24, Y+9	; 0x09
     722:	9a 85       	ldd	r25, Y+10	; 0x0a
     724:	c0 97       	sbiw	r24, 0x30	; 48
     726:	0a 97       	sbiw	r24, 0x0a	; 10
     728:	08 f0       	brcs	.+2      	; 0x72c <conv_flt+0x11c>
     72a:	90 cf       	rjmp	.-224    	; 0x64c <conv_flt+0x3c>
     72c:	10 e0       	ldi	r17, 0x00	; 0
     72e:	00 e0       	ldi	r16, 0x00	; 0
     730:	c8 01       	movw	r24, r16
     732:	11 0f       	add	r17, r17
     734:	aa 0b       	sbc	r26, r26
     736:	bb 0b       	sbc	r27, r27
     738:	8d 83       	std	Y+5, r24	; 0x05
     73a:	9e 83       	std	Y+6, r25	; 0x06
     73c:	af 83       	std	Y+7, r26	; 0x07
     73e:	b8 87       	std	Y+8, r27	; 0x08
     740:	29 85       	ldd	r18, Y+9	; 0x09
     742:	20 53       	subi	r18, 0x30	; 48
     744:	40 e2       	ldi	r20, 0x20	; 32
     746:	bc 01       	movw	r22, r24
     748:	cd 01       	movw	r24, r26
     74a:	0e 94 83 01 	call	0x306	; 0x306 <mulacc>
     74e:	8b 01       	movw	r16, r22
     750:	91 e0       	ldi	r25, 0x01	; 1
     752:	89 1a       	sub	r8, r25
     754:	91 08       	sbc	r9, r1
     756:	59 f0       	breq	.+22     	; 0x76e <conv_flt+0x15e>
     758:	87 2d       	mov	r24, r7
     75a:	9c 2d       	mov	r25, r12
     75c:	0e 94 58 0b 	call	0x16b0	; 0x16b0 <fgetc>
     760:	89 87       	std	Y+9, r24	; 0x09
     762:	9a 87       	std	Y+10, r25	; 0x0a
     764:	89 85       	ldd	r24, Y+9	; 0x09
     766:	9a 85       	ldd	r25, Y+10	; 0x0a
     768:	c0 97       	sbiw	r24, 0x30	; 48
     76a:	0a 97       	sbiw	r24, 0x0a	; 10
     76c:	08 f3       	brcs	.-62     	; 0x730 <conv_flt+0x120>
     76e:	d4 fe       	sbrs	r13, 4
     770:	03 c0       	rjmp	.+6      	; 0x778 <conv_flt+0x168>
     772:	11 95       	neg	r17
     774:	01 95       	neg	r16
     776:	11 09       	sbc	r17, r1
     778:	e0 0e       	add	r14, r16
     77a:	f1 1e       	adc	r15, r17
     77c:	84 01       	movw	r16, r8
     77e:	01 2b       	or	r16, r17
     780:	49 f0       	breq	.+18     	; 0x794 <conv_flt+0x184>
     782:	a9 85       	ldd	r26, Y+9	; 0x09
     784:	ba 85       	ldd	r27, Y+10	; 0x0a
     786:	b7 fd       	sbrc	r27, 7
     788:	05 c0       	rjmp	.+10     	; 0x794 <conv_flt+0x184>
     78a:	67 2d       	mov	r22, r7
     78c:	7c 2d       	mov	r23, r12
     78e:	cd 01       	movw	r24, r26
     790:	0e 94 c6 0b 	call	0x178c	; 0x178c <ungetc>
     794:	69 81       	ldd	r22, Y+1	; 0x01
     796:	7a 81       	ldd	r23, Y+2	; 0x02
     798:	8b 81       	ldd	r24, Y+3	; 0x03
     79a:	9c 81       	ldd	r25, Y+4	; 0x04
     79c:	0e 94 53 09 	call	0x12a6	; 0x12a6 <__floatunsisf>
     7a0:	69 83       	std	Y+1, r22	; 0x01
     7a2:	7a 83       	std	Y+2, r23	; 0x02
     7a4:	8b 83       	std	Y+3, r24	; 0x03
     7a6:	9c 83       	std	Y+4, r25	; 0x04
     7a8:	69 81       	ldd	r22, Y+1	; 0x01
     7aa:	7a 81       	ldd	r23, Y+2	; 0x02
     7ac:	8b 81       	ldd	r24, Y+3	; 0x03
     7ae:	9c 81       	ldd	r25, Y+4	; 0x04
     7b0:	f7 fe       	sbrs	r15, 7
     7b2:	9f c0       	rjmp	.+318    	; 0x8f2 <conv_flt+0x2e2>
     7b4:	f1 94       	neg	r15
     7b6:	e1 94       	neg	r14
     7b8:	f1 08       	sbc	r15, r1
     7ba:	eb e9       	ldi	r30, 0x9B	; 155
     7bc:	f1 e0       	ldi	r31, 0x01	; 1
     7be:	fe 83       	std	Y+6, r31	; 0x06
     7c0:	ed 83       	std	Y+5, r30	; 0x05
     7c2:	8d 80       	ldd	r8, Y+5	; 0x05
     7c4:	9e 80       	ldd	r9, Y+6	; 0x06
     7c6:	b8 e1       	ldi	r27, 0x18	; 24
     7c8:	8b 1a       	sub	r8, r27
     7ca:	91 08       	sbc	r9, r1
     7cc:	00 e2       	ldi	r16, 0x20	; 32
     7ce:	10 e0       	ldi	r17, 0x00	; 0
     7d0:	81 c0       	rjmp	.+258    	; 0x8d4 <conv_flt+0x2c4>
     7d2:	01 50       	subi	r16, 0x01	; 1
     7d4:	11 09       	sbc	r17, r1
     7d6:	81 f0       	breq	.+32     	; 0x7f8 <conv_flt+0x1e8>
     7d8:	87 2d       	mov	r24, r7
     7da:	9c 2d       	mov	r25, r12
     7dc:	0e 94 58 0b 	call	0x16b0	; 0x16b0 <fgetc>
     7e0:	7c 01       	movw	r14, r24
     7e2:	97 fd       	sbrc	r25, 7
     7e4:	09 c0       	rjmp	.+18     	; 0x7f8 <conv_flt+0x1e8>
     7e6:	0e 94 2f 0b 	call	0x165e	; 0x165e <tolower>
     7ea:	d8 16       	cp	r13, r24
     7ec:	11 f1       	breq	.+68     	; 0x832 <conv_flt+0x222>
     7ee:	67 2d       	mov	r22, r7
     7f0:	7c 2d       	mov	r23, r12
     7f2:	c7 01       	movw	r24, r14
     7f4:	0e 94 c6 0b 	call	0x178c	; 0x178c <ungetc>
     7f8:	a9 81       	ldd	r26, Y+1	; 0x01
     7fa:	ba 81       	ldd	r27, Y+2	; 0x02
     7fc:	a2 58       	subi	r26, 0x82	; 130
     7fe:	b1 40       	sbci	r27, 0x01	; 1
     800:	09 f0       	breq	.+2      	; 0x804 <conv_flt+0x1f4>
     802:	24 cf       	rjmp	.-440    	; 0x64c <conv_flt+0x3c>
     804:	80 e0       	ldi	r24, 0x00	; 0
     806:	90 e0       	ldi	r25, 0x00	; 0
     808:	a0 e8       	ldi	r26, 0x80	; 128
     80a:	bf e7       	ldi	r27, 0x7F	; 127
     80c:	bc 01       	movw	r22, r24
     80e:	cd 01       	movw	r24, r26
     810:	d9 2c       	mov	r13, r9
     812:	d7 fc       	sbrc	r13, 7
     814:	90 58       	subi	r25, 0x80	; 128
     816:	a1 14       	cp	r10, r1
     818:	b1 04       	cpc	r11, r1
     81a:	29 f0       	breq	.+10     	; 0x826 <conv_flt+0x216>
     81c:	f5 01       	movw	r30, r10
     81e:	60 83       	st	Z, r22
     820:	71 83       	std	Z+1, r23	; 0x01
     822:	82 83       	std	Z+2, r24	; 0x02
     824:	93 83       	std	Z+3, r25	; 0x03
     826:	81 e0       	ldi	r24, 0x01	; 1
     828:	12 cf       	rjmp	.-476    	; 0x64e <conv_flt+0x3e>
     82a:	2f e7       	ldi	r18, 0x7F	; 127
     82c:	31 e0       	ldi	r19, 0x01	; 1
     82e:	3a 83       	std	Y+2, r19	; 0x02
     830:	29 83       	std	Y+1, r18	; 0x01
     832:	a9 81       	ldd	r26, Y+1	; 0x01
     834:	ba 81       	ldd	r27, Y+2	; 0x02
     836:	11 96       	adiw	r26, 0x01	; 1
     838:	ba 83       	std	Y+2, r27	; 0x02
     83a:	a9 83       	std	Y+1, r26	; 0x01
     83c:	fd 01       	movw	r30, r26
     83e:	31 97       	sbiw	r30, 0x01	; 1
     840:	d4 90       	lpm	r13, Z
     842:	d1 10       	cpse	r13, r1
     844:	c6 cf       	rjmp	.-116    	; 0x7d2 <conv_flt+0x1c2>
     846:	af 57       	subi	r26, 0x7F	; 127
     848:	b1 40       	sbci	r27, 0x01	; 1
     84a:	e1 f6       	brne	.-72     	; 0x804 <conv_flt+0x1f4>
     84c:	80 e0       	ldi	r24, 0x00	; 0
     84e:	90 e0       	ldi	r25, 0x00	; 0
     850:	a0 ec       	ldi	r26, 0xC0	; 192
     852:	bf e7       	ldi	r27, 0x7F	; 127
     854:	db cf       	rjmp	.-74     	; 0x80c <conv_flt+0x1fc>
     856:	8c e7       	ldi	r24, 0x7C	; 124
     858:	91 e0       	ldi	r25, 0x01	; 1
     85a:	9a 83       	std	Y+2, r25	; 0x02
     85c:	89 83       	std	Y+1, r24	; 0x01
     85e:	e9 cf       	rjmp	.-46     	; 0x832 <conv_flt+0x222>
     860:	9d 2c       	mov	r9, r13
     862:	15 cf       	rjmp	.-470    	; 0x68e <conv_flt+0x7e>
     864:	88 23       	and	r24, r24
     866:	19 f0       	breq	.+6      	; 0x86e <conv_flt+0x25e>
     868:	31 e0       	ldi	r19, 0x01	; 1
     86a:	e3 1a       	sub	r14, r19
     86c:	f1 08       	sbc	r15, r1
     86e:	40 e2       	ldi	r20, 0x20	; 32
     870:	69 81       	ldd	r22, Y+1	; 0x01
     872:	7a 81       	ldd	r23, Y+2	; 0x02
     874:	8b 81       	ldd	r24, Y+3	; 0x03
     876:	9c 81       	ldd	r25, Y+4	; 0x04
     878:	0e 94 83 01 	call	0x306	; 0x306 <mulacc>
     87c:	69 83       	std	Y+1, r22	; 0x01
     87e:	7a 83       	std	Y+2, r23	; 0x02
     880:	8b 83       	std	Y+3, r24	; 0x03
     882:	9c 83       	std	Y+4, r25	; 0x04
     884:	89 81       	ldd	r24, Y+1	; 0x01
     886:	9a 81       	ldd	r25, Y+2	; 0x02
     888:	ab 81       	ldd	r26, Y+3	; 0x03
     88a:	bc 81       	ldd	r27, Y+4	; 0x04
     88c:	88 39       	cpi	r24, 0x98	; 152
     88e:	99 49       	sbci	r25, 0x99	; 153
     890:	a9 49       	sbci	r26, 0x99	; 153
     892:	b9 41       	sbci	r27, 0x19	; 25
     894:	08 f4       	brcc	.+2      	; 0x898 <conv_flt+0x288>
     896:	0c cf       	rjmp	.-488    	; 0x6b0 <conv_flt+0xa0>
     898:	f9 2d       	mov	r31, r9
     89a:	f6 60       	ori	r31, 0x06	; 6
     89c:	df 2e       	mov	r13, r31
     89e:	08 cf       	rjmp	.-496    	; 0x6b0 <conv_flt+0xa0>
     8a0:	2e 3f       	cpi	r18, 0xFE	; 254
     8a2:	09 f0       	breq	.+2      	; 0x8a6 <conv_flt+0x296>
     8a4:	12 cf       	rjmp	.-476    	; 0x6ca <conv_flt+0xba>
     8a6:	93 fc       	sbrc	r9, 3
     8a8:	10 cf       	rjmp	.-480    	; 0x6ca <conv_flt+0xba>
     8aa:	68 94       	set
     8ac:	d3 f8       	bld	r13, 3
     8ae:	00 cf       	rjmp	.-512    	; 0x6b0 <conv_flt+0xa0>
     8b0:	ed 81       	ldd	r30, Y+5	; 0x05
     8b2:	fe 81       	ldd	r31, Y+6	; 0x06
     8b4:	25 91       	lpm	r18, Z+
     8b6:	35 91       	lpm	r19, Z+
     8b8:	45 91       	lpm	r20, Z+
     8ba:	54 91       	lpm	r21, Z
     8bc:	0e 94 90 09 	call	0x1320	; 0x1320 <__mulsf3>
     8c0:	69 83       	std	Y+1, r22	; 0x01
     8c2:	7a 83       	std	Y+2, r23	; 0x02
     8c4:	8b 83       	std	Y+3, r24	; 0x03
     8c6:	9c 83       	std	Y+4, r25	; 0x04
     8c8:	69 81       	ldd	r22, Y+1	; 0x01
     8ca:	7a 81       	ldd	r23, Y+2	; 0x02
     8cc:	8b 81       	ldd	r24, Y+3	; 0x03
     8ce:	9c 81       	ldd	r25, Y+4	; 0x04
     8d0:	e0 1a       	sub	r14, r16
     8d2:	f1 0a       	sbc	r15, r17
     8d4:	e0 16       	cp	r14, r16
     8d6:	f1 06       	cpc	r15, r17
     8d8:	58 f7       	brcc	.-42     	; 0x8b0 <conv_flt+0x2a0>
     8da:	2d 81       	ldd	r18, Y+5	; 0x05
     8dc:	3e 81       	ldd	r19, Y+6	; 0x06
     8de:	24 50       	subi	r18, 0x04	; 4
     8e0:	31 09       	sbc	r19, r1
     8e2:	3e 83       	std	Y+6, r19	; 0x06
     8e4:	2d 83       	std	Y+5, r18	; 0x05
     8e6:	16 95       	lsr	r17
     8e8:	07 95       	ror	r16
     8ea:	28 15       	cp	r18, r8
     8ec:	39 05       	cpc	r19, r9
     8ee:	91 f7       	brne	.-28     	; 0x8d4 <conv_flt+0x2c4>
     8f0:	90 cf       	rjmp	.-224    	; 0x812 <conv_flt+0x202>
     8f2:	a3 eb       	ldi	r26, 0xB3	; 179
     8f4:	b1 e0       	ldi	r27, 0x01	; 1
     8f6:	be 83       	std	Y+6, r27	; 0x06
     8f8:	ad 83       	std	Y+5, r26	; 0x05
     8fa:	63 cf       	rjmp	.-314    	; 0x7c2 <conv_flt+0x1b2>

000008fc <vfscanf>:
     8fc:	a6 e0       	ldi	r26, 0x06	; 6
     8fe:	b0 e0       	ldi	r27, 0x00	; 0
     900:	e4 e8       	ldi	r30, 0x84	; 132
     902:	f4 e0       	ldi	r31, 0x04	; 4
     904:	0c 94 1f 09 	jmp	0x123e	; 0x123e <__prologue_saves__+0x6>
     908:	5c 01       	movw	r10, r24
     90a:	6d 83       	std	Y+5, r22	; 0x05
     90c:	7e 83       	std	Y+6, r23	; 0x06
     90e:	84 2e       	mov	r8, r20
     910:	55 2e       	mov	r5, r21
     912:	dc 01       	movw	r26, r24
     914:	17 96       	adiw	r26, 0x07	; 7
     916:	1c 92       	st	X, r1
     918:	1e 92       	st	-X, r1
     91a:	16 97       	sbiw	r26, 0x06	; 6
     91c:	91 2c       	mov	r9, r1
     91e:	d5 01       	movw	r26, r10
     920:	13 96       	adiw	r26, 0x03	; 3
     922:	fc 90       	ld	r15, X
     924:	ed 81       	ldd	r30, Y+5	; 0x05
     926:	fe 81       	ldd	r31, Y+6	; 0x06
     928:	f3 fc       	sbrc	r15, 3
     92a:	85 91       	lpm	r24, Z+
     92c:	f3 fe       	sbrs	r15, 3
     92e:	81 91       	ld	r24, Z+
     930:	18 2f       	mov	r17, r24
     932:	fe 83       	std	Y+6, r31	; 0x06
     934:	ed 83       	std	Y+5, r30	; 0x05
     936:	88 23       	and	r24, r24
     938:	f9 f0       	breq	.+62     	; 0x978 <__stack+0x79>
     93a:	90 e0       	ldi	r25, 0x00	; 0
     93c:	0e 94 26 0b 	call	0x164c	; 0x164c <isspace>
     940:	89 2b       	or	r24, r25
     942:	21 f0       	breq	.+8      	; 0x94c <__stack+0x4d>
     944:	c5 01       	movw	r24, r10
     946:	0e 94 bb 01 	call	0x376	; 0x376 <skip_spaces>
     94a:	e9 cf       	rjmp	.-46     	; 0x91e <__stack+0x1f>
     94c:	15 32       	cpi	r17, 0x25	; 37
     94e:	51 f4       	brne	.+20     	; 0x964 <__stack+0x65>
     950:	ed 81       	ldd	r30, Y+5	; 0x05
     952:	fe 81       	ldd	r31, Y+6	; 0x06
     954:	f3 fc       	sbrc	r15, 3
     956:	15 91       	lpm	r17, Z+
     958:	f3 fe       	sbrs	r15, 3
     95a:	11 91       	ld	r17, Z+
     95c:	fe 83       	std	Y+6, r31	; 0x06
     95e:	ed 83       	std	Y+5, r30	; 0x05
     960:	15 32       	cpi	r17, 0x25	; 37
     962:	69 f4       	brne	.+26     	; 0x97e <__stack+0x7f>
     964:	c5 01       	movw	r24, r10
     966:	0e 94 58 0b 	call	0x16b0	; 0x16b0 <fgetc>
     96a:	97 fd       	sbrc	r25, 7
     96c:	a7 c0       	rjmp	.+334    	; 0xabc <__stack+0x1bd>
     96e:	18 17       	cp	r17, r24
     970:	b1 f2       	breq	.-84     	; 0x91e <__stack+0x1f>
     972:	b5 01       	movw	r22, r10
     974:	0e 94 c6 0b 	call	0x178c	; 0x178c <ungetc>
     978:	89 2d       	mov	r24, r9
     97a:	90 e0       	ldi	r25, 0x00	; 0
     97c:	a3 c0       	rjmp	.+326    	; 0xac4 <__stack+0x1c5>
     97e:	00 e0       	ldi	r16, 0x00	; 0
     980:	1a 32       	cpi	r17, 0x2A	; 42
     982:	49 f4       	brne	.+18     	; 0x996 <__stack+0x97>
     984:	ed 81       	ldd	r30, Y+5	; 0x05
     986:	fe 81       	ldd	r31, Y+6	; 0x06
     988:	f3 fc       	sbrc	r15, 3
     98a:	15 91       	lpm	r17, Z+
     98c:	f3 fe       	sbrs	r15, 3
     98e:	11 91       	ld	r17, Z+
     990:	fe 83       	std	Y+6, r31	; 0x06
     992:	ed 83       	std	Y+5, r30	; 0x05
     994:	01 e0       	ldi	r16, 0x01	; 1
     996:	d1 2c       	mov	r13, r1
     998:	c1 2c       	mov	r12, r1
     99a:	20 ed       	ldi	r18, 0xD0	; 208
     99c:	21 0f       	add	r18, r17
     99e:	2a 30       	cpi	r18, 0x0A	; 10
     9a0:	68 f1       	brcs	.+90     	; 0x9fc <__stack+0xfd>
     9a2:	01 ff       	sbrs	r16, 1
     9a4:	42 c0       	rjmp	.+132    	; 0xa2a <__stack+0x12b>
     9a6:	c1 14       	cp	r12, r1
     9a8:	d1 04       	cpc	r13, r1
     9aa:	31 f3       	breq	.-52     	; 0x978 <__stack+0x79>
     9ac:	18 36       	cpi	r17, 0x68	; 104
     9ae:	09 f4       	brne	.+2      	; 0x9b2 <__stack+0xb3>
     9b0:	40 c0       	rjmp	.+128    	; 0xa32 <__stack+0x133>
     9b2:	1c 36       	cpi	r17, 0x6C	; 108
     9b4:	09 f4       	brne	.+2      	; 0x9b8 <__stack+0xb9>
     9b6:	49 c0       	rjmp	.+146    	; 0xa4a <__stack+0x14b>
     9b8:	11 23       	and	r17, r17
     9ba:	f1 f2       	breq	.-68     	; 0x978 <__stack+0x79>
     9bc:	61 2f       	mov	r22, r17
     9be:	70 e0       	ldi	r23, 0x00	; 0
     9c0:	8a e6       	ldi	r24, 0x6A	; 106
     9c2:	91 e0       	ldi	r25, 0x01	; 1
     9c4:	0e 94 37 0b 	call	0x166e	; 0x166e <strchr_P>
     9c8:	89 2b       	or	r24, r25
     9ca:	b1 f2       	breq	.-84     	; 0x978 <__stack+0x79>
     9cc:	e1 2c       	mov	r14, r1
     9ce:	f1 2c       	mov	r15, r1
     9d0:	00 fd       	sbrc	r16, 0
     9d2:	06 c0       	rjmp	.+12     	; 0x9e0 <__stack+0xe1>
     9d4:	e8 2d       	mov	r30, r8
     9d6:	f5 2d       	mov	r31, r5
     9d8:	e1 90       	ld	r14, Z+
     9da:	f1 90       	ld	r15, Z+
     9dc:	8e 2e       	mov	r8, r30
     9de:	5f 2e       	mov	r5, r31
     9e0:	1e 36       	cpi	r17, 0x6E	; 110
     9e2:	09 f0       	breq	.+2      	; 0x9e6 <__stack+0xe7>
     9e4:	3c c0       	rjmp	.+120    	; 0xa5e <__stack+0x15f>
     9e6:	d5 01       	movw	r26, r10
     9e8:	16 96       	adiw	r26, 0x06	; 6
     9ea:	4d 91       	ld	r20, X+
     9ec:	5c 91       	ld	r21, X
     9ee:	70 e0       	ldi	r23, 0x00	; 0
     9f0:	60 e0       	ldi	r22, 0x00	; 0
     9f2:	20 2f       	mov	r18, r16
     9f4:	c7 01       	movw	r24, r14
     9f6:	0e 94 75 01 	call	0x2ea	; 0x2ea <putval>
     9fa:	91 cf       	rjmp	.-222    	; 0x91e <__stack+0x1f>
     9fc:	02 60       	ori	r16, 0x02	; 2
     9fe:	c6 01       	movw	r24, r12
     a00:	b0 e0       	ldi	r27, 0x00	; 0
     a02:	a0 e0       	ldi	r26, 0x00	; 0
     a04:	89 83       	std	Y+1, r24	; 0x01
     a06:	9a 83       	std	Y+2, r25	; 0x02
     a08:	ab 83       	std	Y+3, r26	; 0x03
     a0a:	bc 83       	std	Y+4, r27	; 0x04
     a0c:	40 e2       	ldi	r20, 0x20	; 32
     a0e:	b6 01       	movw	r22, r12
     a10:	cd 01       	movw	r24, r26
     a12:	0e 94 83 01 	call	0x306	; 0x306 <mulacc>
     a16:	6b 01       	movw	r12, r22
     a18:	ed 81       	ldd	r30, Y+5	; 0x05
     a1a:	fe 81       	ldd	r31, Y+6	; 0x06
     a1c:	f3 fc       	sbrc	r15, 3
     a1e:	15 91       	lpm	r17, Z+
     a20:	f3 fe       	sbrs	r15, 3
     a22:	11 91       	ld	r17, Z+
     a24:	fe 83       	std	Y+6, r31	; 0x06
     a26:	ed 83       	std	Y+5, r30	; 0x05
     a28:	b8 cf       	rjmp	.-144    	; 0x99a <__stack+0x9b>
     a2a:	cc 24       	eor	r12, r12
     a2c:	ca 94       	dec	r12
     a2e:	dc 2c       	mov	r13, r12
     a30:	bd cf       	rjmp	.-134    	; 0x9ac <__stack+0xad>
     a32:	ed 81       	ldd	r30, Y+5	; 0x05
     a34:	fe 81       	ldd	r31, Y+6	; 0x06
     a36:	f3 fc       	sbrc	r15, 3
     a38:	15 91       	lpm	r17, Z+
     a3a:	f3 fe       	sbrs	r15, 3
     a3c:	11 91       	ld	r17, Z+
     a3e:	fe 83       	std	Y+6, r31	; 0x06
     a40:	ed 83       	std	Y+5, r30	; 0x05
     a42:	18 36       	cpi	r17, 0x68	; 104
     a44:	09 f0       	breq	.+2      	; 0xa48 <__stack+0x149>
     a46:	b8 cf       	rjmp	.-144    	; 0x9b8 <__stack+0xb9>
     a48:	08 60       	ori	r16, 0x08	; 8
     a4a:	04 60       	ori	r16, 0x04	; 4
     a4c:	ed 81       	ldd	r30, Y+5	; 0x05
     a4e:	fe 81       	ldd	r31, Y+6	; 0x06
     a50:	f3 fc       	sbrc	r15, 3
     a52:	15 91       	lpm	r17, Z+
     a54:	f3 fe       	sbrs	r15, 3
     a56:	11 91       	ld	r17, Z+
     a58:	fe 83       	std	Y+6, r31	; 0x06
     a5a:	ed 83       	std	Y+5, r30	; 0x05
     a5c:	ad cf       	rjmp	.-166    	; 0x9b8 <__stack+0xb9>
     a5e:	13 36       	cpi	r17, 0x63	; 99
     a60:	c1 f4       	brne	.+48     	; 0xa92 <__stack+0x193>
     a62:	01 fd       	sbrc	r16, 1
     a64:	03 c0       	rjmp	.+6      	; 0xa6c <__stack+0x16d>
     a66:	cc 24       	eor	r12, r12
     a68:	c3 94       	inc	r12
     a6a:	d1 2c       	mov	r13, r1
     a6c:	c5 01       	movw	r24, r10
     a6e:	0e 94 58 0b 	call	0x16b0	; 0x16b0 <fgetc>
     a72:	97 fd       	sbrc	r25, 7
     a74:	23 c0       	rjmp	.+70     	; 0xabc <__stack+0x1bd>
     a76:	e1 14       	cp	r14, r1
     a78:	f1 04       	cpc	r15, r1
     a7a:	19 f0       	breq	.+6      	; 0xa82 <__stack+0x183>
     a7c:	f7 01       	movw	r30, r14
     a7e:	81 93       	st	Z+, r24
     a80:	7f 01       	movw	r14, r30
     a82:	b1 e0       	ldi	r27, 0x01	; 1
     a84:	cb 1a       	sub	r12, r27
     a86:	d1 08       	sbc	r13, r1
     a88:	89 f7       	brne	.-30     	; 0xa6c <__stack+0x16d>
     a8a:	00 fd       	sbrc	r16, 0
     a8c:	48 cf       	rjmp	.-368    	; 0x91e <__stack+0x1f>
     a8e:	93 94       	inc	r9
     a90:	46 cf       	rjmp	.-372    	; 0x91e <__stack+0x1f>
     a92:	1b 35       	cpi	r17, 0x5B	; 91
     a94:	d9 f4       	brne	.+54     	; 0xacc <__stack+0x1cd>
     a96:	2d 81       	ldd	r18, Y+5	; 0x05
     a98:	3e 81       	ldd	r19, Y+6	; 0x06
     a9a:	a7 01       	movw	r20, r14
     a9c:	b6 01       	movw	r22, r12
     a9e:	c5 01       	movw	r24, r10
     aa0:	0e 94 65 02 	call	0x4ca	; 0x4ca <conv_brk>
     aa4:	8d 83       	std	Y+5, r24	; 0x05
     aa6:	9e 83       	std	Y+6, r25	; 0x06
     aa8:	ed 81       	ldd	r30, Y+5	; 0x05
     aaa:	fe 81       	ldd	r31, Y+6	; 0x06
     aac:	ef 2b       	or	r30, r31
     aae:	69 f7       	brne	.-38     	; 0xa8a <__stack+0x18b>
     ab0:	d5 01       	movw	r26, r10
     ab2:	13 96       	adiw	r26, 0x03	; 3
     ab4:	8c 91       	ld	r24, X
     ab6:	80 73       	andi	r24, 0x30	; 48
     ab8:	09 f4       	brne	.+2      	; 0xabc <__stack+0x1bd>
     aba:	5e cf       	rjmp	.-324    	; 0x978 <__stack+0x79>
     abc:	8f ef       	ldi	r24, 0xFF	; 255
     abe:	9f ef       	ldi	r25, 0xFF	; 255
     ac0:	91 10       	cpse	r9, r1
     ac2:	5a cf       	rjmp	.-332    	; 0x978 <__stack+0x79>
     ac4:	26 96       	adiw	r28, 0x06	; 6
     ac6:	ef e0       	ldi	r30, 0x0F	; 15
     ac8:	0c 94 3b 09 	jmp	0x1276	; 0x1276 <__epilogue_restores__+0x6>
     acc:	c5 01       	movw	r24, r10
     ace:	0e 94 bb 01 	call	0x376	; 0x376 <skip_spaces>
     ad2:	97 fd       	sbrc	r25, 7
     ad4:	f3 cf       	rjmp	.-26     	; 0xabc <__stack+0x1bd>
     ad6:	1f 36       	cpi	r17, 0x6F	; 111
     ad8:	09 f4       	brne	.+2      	; 0xadc <__stack+0x1dd>
     ada:	43 c0       	rjmp	.+134    	; 0xb62 <__stack+0x263>
     adc:	68 f4       	brcc	.+26     	; 0xaf8 <__stack+0x1f9>
     ade:	19 36       	cpi	r17, 0x69	; 105
     ae0:	89 f0       	breq	.+34     	; 0xb04 <__stack+0x205>
     ae2:	20 f4       	brcc	.+8      	; 0xaec <__stack+0x1ed>
     ae4:	18 35       	cpi	r17, 0x58	; 88
     ae6:	69 f0       	breq	.+26     	; 0xb02 <__stack+0x203>
     ae8:	14 36       	cpi	r17, 0x64	; 100
     aea:	c9 f1       	breq	.+114    	; 0xb5e <__stack+0x25f>
     aec:	a7 01       	movw	r20, r14
     aee:	b6 01       	movw	r22, r12
     af0:	c5 01       	movw	r24, r10
     af2:	0e 94 08 03 	call	0x610	; 0x610 <conv_flt>
     af6:	0c c0       	rjmp	.+24     	; 0xb10 <__stack+0x211>
     af8:	13 37       	cpi	r17, 0x73	; 115
     afa:	e1 f0       	breq	.+56     	; 0xb34 <__stack+0x235>
     afc:	60 f4       	brcc	.+24     	; 0xb16 <__stack+0x217>
     afe:	10 37       	cpi	r17, 0x70	; 112
     b00:	a9 f7       	brne	.-22     	; 0xaec <__stack+0x1ed>
     b02:	00 64       	ori	r16, 0x40	; 64
     b04:	20 2f       	mov	r18, r16
     b06:	a7 01       	movw	r20, r14
     b08:	b6 01       	movw	r22, r12
     b0a:	c5 01       	movw	r24, r10
     b0c:	0e 94 d4 01 	call	0x3a8	; 0x3a8 <conv_int>
     b10:	81 11       	cpse	r24, r1
     b12:	bb cf       	rjmp	.-138    	; 0xa8a <__stack+0x18b>
     b14:	cd cf       	rjmp	.-102    	; 0xab0 <__stack+0x1b1>
     b16:	15 37       	cpi	r17, 0x75	; 117
     b18:	11 f1       	breq	.+68     	; 0xb5e <__stack+0x25f>
     b1a:	18 37       	cpi	r17, 0x78	; 120
     b1c:	91 f3       	breq	.-28     	; 0xb02 <__stack+0x203>
     b1e:	e6 cf       	rjmp	.-52     	; 0xaec <__stack+0x1ed>
     b20:	e1 14       	cp	r14, r1
     b22:	f1 04       	cpc	r15, r1
     b24:	19 f0       	breq	.+6      	; 0xb2c <__stack+0x22d>
     b26:	f7 01       	movw	r30, r14
     b28:	61 92       	st	Z+, r6
     b2a:	7f 01       	movw	r14, r30
     b2c:	b1 e0       	ldi	r27, 0x01	; 1
     b2e:	cb 1a       	sub	r12, r27
     b30:	d1 08       	sbc	r13, r1
     b32:	71 f0       	breq	.+28     	; 0xb50 <__stack+0x251>
     b34:	c5 01       	movw	r24, r10
     b36:	0e 94 58 0b 	call	0x16b0	; 0x16b0 <fgetc>
     b3a:	3c 01       	movw	r6, r24
     b3c:	97 fd       	sbrc	r25, 7
     b3e:	08 c0       	rjmp	.+16     	; 0xb50 <__stack+0x251>
     b40:	0e 94 26 0b 	call	0x164c	; 0x164c <isspace>
     b44:	89 2b       	or	r24, r25
     b46:	61 f3       	breq	.-40     	; 0xb20 <__stack+0x221>
     b48:	b5 01       	movw	r22, r10
     b4a:	c3 01       	movw	r24, r6
     b4c:	0e 94 c6 0b 	call	0x178c	; 0x178c <ungetc>
     b50:	e1 14       	cp	r14, r1
     b52:	f1 04       	cpc	r15, r1
     b54:	09 f4       	brne	.+2      	; 0xb58 <__stack+0x259>
     b56:	99 cf       	rjmp	.-206    	; 0xa8a <__stack+0x18b>
     b58:	f7 01       	movw	r30, r14
     b5a:	10 82       	st	Z, r1
     b5c:	96 cf       	rjmp	.-212    	; 0xa8a <__stack+0x18b>
     b5e:	00 62       	ori	r16, 0x20	; 32
     b60:	d1 cf       	rjmp	.-94     	; 0xb04 <__stack+0x205>
     b62:	00 61       	ori	r16, 0x10	; 16
     b64:	cf cf       	rjmp	.-98     	; 0xb04 <__stack+0x205>

00000b66 <vfprintf>:
     b66:	a3 e1       	ldi	r26, 0x13	; 19
     b68:	b0 e0       	ldi	r27, 0x00	; 0
     b6a:	e9 eb       	ldi	r30, 0xB9	; 185
     b6c:	f5 e0       	ldi	r31, 0x05	; 5
     b6e:	0c 94 1c 09 	jmp	0x1238	; 0x1238 <__prologue_saves__>
     b72:	7c 01       	movw	r14, r24
     b74:	1b 01       	movw	r2, r22
     b76:	5a 01       	movw	r10, r20
     b78:	dc 01       	movw	r26, r24
     b7a:	17 96       	adiw	r26, 0x07	; 7
     b7c:	1c 92       	st	X, r1
     b7e:	1e 92       	st	-X, r1
     b80:	16 97       	sbiw	r26, 0x06	; 6
     b82:	13 96       	adiw	r26, 0x03	; 3
     b84:	8c 91       	ld	r24, X
     b86:	81 ff       	sbrs	r24, 1
     b88:	4d c3       	rjmp	.+1690   	; 0x1224 <vfprintf+0x6be>
     b8a:	fe 01       	movw	r30, r28
     b8c:	31 96       	adiw	r30, 0x01	; 1
     b8e:	4f 01       	movw	r8, r30
     b90:	d7 01       	movw	r26, r14
     b92:	13 96       	adiw	r26, 0x03	; 3
     b94:	9c 91       	ld	r25, X
     b96:	f1 01       	movw	r30, r2
     b98:	93 fd       	sbrc	r25, 3
     b9a:	85 91       	lpm	r24, Z+
     b9c:	93 ff       	sbrs	r25, 3
     b9e:	81 91       	ld	r24, Z+
     ba0:	1f 01       	movw	r2, r30
     ba2:	88 23       	and	r24, r24
     ba4:	09 f4       	brne	.+2      	; 0xba8 <vfprintf+0x42>
     ba6:	f1 c2       	rjmp	.+1506   	; 0x118a <vfprintf+0x624>
     ba8:	85 32       	cpi	r24, 0x25	; 37
     baa:	39 f4       	brne	.+14     	; 0xbba <vfprintf+0x54>
     bac:	93 fd       	sbrc	r25, 3
     bae:	85 91       	lpm	r24, Z+
     bb0:	93 ff       	sbrs	r25, 3
     bb2:	81 91       	ld	r24, Z+
     bb4:	1f 01       	movw	r2, r30
     bb6:	85 32       	cpi	r24, 0x25	; 37
     bb8:	39 f4       	brne	.+14     	; 0xbc8 <vfprintf+0x62>
     bba:	b7 01       	movw	r22, r14
     bbc:	90 e0       	ldi	r25, 0x00	; 0
     bbe:	0e 94 96 0b 	call	0x172c	; 0x172c <fputc>
     bc2:	65 01       	movw	r12, r10
     bc4:	56 01       	movw	r10, r12
     bc6:	e4 cf       	rjmp	.-56     	; 0xb90 <vfprintf+0x2a>
     bc8:	10 e0       	ldi	r17, 0x00	; 0
     bca:	71 2c       	mov	r7, r1
     bcc:	61 2c       	mov	r6, r1
     bce:	bf e1       	ldi	r27, 0x1F	; 31
     bd0:	b6 15       	cp	r27, r6
     bd2:	38 f0       	brcs	.+14     	; 0xbe2 <vfprintf+0x7c>
     bd4:	8b 32       	cpi	r24, 0x2B	; 43
     bd6:	11 f1       	breq	.+68     	; 0xc1c <vfprintf+0xb6>
     bd8:	90 f4       	brcc	.+36     	; 0xbfe <vfprintf+0x98>
     bda:	80 32       	cpi	r24, 0x20	; 32
     bdc:	09 f1       	breq	.+66     	; 0xc20 <vfprintf+0xba>
     bde:	83 32       	cpi	r24, 0x23	; 35
     be0:	29 f1       	breq	.+74     	; 0xc2c <vfprintf+0xc6>
     be2:	67 fc       	sbrc	r6, 7
     be4:	3c c0       	rjmp	.+120    	; 0xc5e <vfprintf+0xf8>
     be6:	20 ed       	ldi	r18, 0xD0	; 208
     be8:	28 0f       	add	r18, r24
     bea:	2a 30       	cpi	r18, 0x0A	; 10
     bec:	50 f5       	brcc	.+84     	; 0xc42 <vfprintf+0xdc>
     bee:	66 fe       	sbrs	r6, 6
     bf0:	20 c0       	rjmp	.+64     	; 0xc32 <vfprintf+0xcc>
     bf2:	ea e0       	ldi	r30, 0x0A	; 10
     bf4:	1e 9f       	mul	r17, r30
     bf6:	20 0d       	add	r18, r0
     bf8:	11 24       	eor	r1, r1
     bfa:	12 2f       	mov	r17, r18
     bfc:	06 c0       	rjmp	.+12     	; 0xc0a <vfprintf+0xa4>
     bfe:	8d 32       	cpi	r24, 0x2D	; 45
     c00:	91 f0       	breq	.+36     	; 0xc26 <vfprintf+0xc0>
     c02:	80 33       	cpi	r24, 0x30	; 48
     c04:	71 f7       	brne	.-36     	; 0xbe2 <vfprintf+0x7c>
     c06:	68 94       	set
     c08:	60 f8       	bld	r6, 0
     c0a:	f1 01       	movw	r30, r2
     c0c:	93 fd       	sbrc	r25, 3
     c0e:	85 91       	lpm	r24, Z+
     c10:	93 ff       	sbrs	r25, 3
     c12:	81 91       	ld	r24, Z+
     c14:	1f 01       	movw	r2, r30
     c16:	81 11       	cpse	r24, r1
     c18:	da cf       	rjmp	.-76     	; 0xbce <vfprintf+0x68>
     c1a:	21 c0       	rjmp	.+66     	; 0xc5e <vfprintf+0xf8>
     c1c:	68 94       	set
     c1e:	61 f8       	bld	r6, 1
     c20:	68 94       	set
     c22:	62 f8       	bld	r6, 2
     c24:	f2 cf       	rjmp	.-28     	; 0xc0a <vfprintf+0xa4>
     c26:	68 94       	set
     c28:	63 f8       	bld	r6, 3
     c2a:	ef cf       	rjmp	.-34     	; 0xc0a <vfprintf+0xa4>
     c2c:	68 94       	set
     c2e:	64 f8       	bld	r6, 4
     c30:	ec cf       	rjmp	.-40     	; 0xc0a <vfprintf+0xa4>
     c32:	fa e0       	ldi	r31, 0x0A	; 10
     c34:	7f 9e       	mul	r7, r31
     c36:	20 0d       	add	r18, r0
     c38:	11 24       	eor	r1, r1
     c3a:	72 2e       	mov	r7, r18
     c3c:	68 94       	set
     c3e:	65 f8       	bld	r6, 5
     c40:	e4 cf       	rjmp	.-56     	; 0xc0a <vfprintf+0xa4>
     c42:	8e 32       	cpi	r24, 0x2E	; 46
     c44:	29 f4       	brne	.+10     	; 0xc50 <vfprintf+0xea>
     c46:	66 fc       	sbrc	r6, 6
     c48:	a0 c2       	rjmp	.+1344   	; 0x118a <vfprintf+0x624>
     c4a:	68 94       	set
     c4c:	66 f8       	bld	r6, 6
     c4e:	dd cf       	rjmp	.-70     	; 0xc0a <vfprintf+0xa4>
     c50:	8c 36       	cpi	r24, 0x6C	; 108
     c52:	19 f4       	brne	.+6      	; 0xc5a <vfprintf+0xf4>
     c54:	68 94       	set
     c56:	67 f8       	bld	r6, 7
     c58:	d8 cf       	rjmp	.-80     	; 0xc0a <vfprintf+0xa4>
     c5a:	88 36       	cpi	r24, 0x68	; 104
     c5c:	b1 f2       	breq	.-84     	; 0xc0a <vfprintf+0xa4>
     c5e:	9b eb       	ldi	r25, 0xBB	; 187
     c60:	98 0f       	add	r25, r24
     c62:	93 30       	cpi	r25, 0x03	; 3
     c64:	08 f0       	brcs	.+2      	; 0xc68 <vfprintf+0x102>
     c66:	6f c0       	rjmp	.+222    	; 0xd46 <vfprintf+0x1e0>
     c68:	68 94       	set
     c6a:	64 f8       	bld	r6, 4
     c6c:	80 5e       	subi	r24, 0xE0	; 224
     c6e:	66 fe       	sbrs	r6, 6
     c70:	16 e0       	ldi	r17, 0x06	; 6
     c72:	26 2d       	mov	r18, r6
     c74:	2f 73       	andi	r18, 0x3F	; 63
     c76:	62 2e       	mov	r6, r18
     c78:	85 36       	cpi	r24, 0x65	; 101
     c7a:	09 f0       	breq	.+2      	; 0xc7e <vfprintf+0x118>
     c7c:	6c c0       	rjmp	.+216    	; 0xd56 <vfprintf+0x1f0>
     c7e:	68 94       	set
     c80:	66 f8       	bld	r6, 6
     c82:	67 fe       	sbrs	r6, 7
     c84:	72 c0       	rjmp	.+228    	; 0xd6a <vfprintf+0x204>
     c86:	81 2f       	mov	r24, r17
     c88:	1c 33       	cpi	r17, 0x3C	; 60
     c8a:	08 f0       	brcs	.+2      	; 0xc8e <vfprintf+0x128>
     c8c:	8b e3       	ldi	r24, 0x3B	; 59
     c8e:	44 24       	eor	r4, r4
     c90:	43 94       	inc	r4
     c92:	48 0e       	add	r4, r24
     c94:	27 e0       	ldi	r18, 0x07	; 7
     c96:	d5 01       	movw	r26, r10
     c98:	4d 91       	ld	r20, X+
     c9a:	5d 91       	ld	r21, X+
     c9c:	6d 91       	ld	r22, X+
     c9e:	7d 91       	ld	r23, X+
     ca0:	6d 01       	movw	r12, r26
     ca2:	4c 87       	std	Y+12, r20	; 0x0c
     ca4:	5d 87       	std	Y+13, r21	; 0x0d
     ca6:	6e 87       	std	Y+14, r22	; 0x0e
     ca8:	7f 87       	std	Y+15, r23	; 0x0f
     caa:	04 2d       	mov	r16, r4
     cac:	a4 01       	movw	r20, r8
     cae:	6c 85       	ldd	r22, Y+12	; 0x0c
     cb0:	7d 85       	ldd	r23, Y+13	; 0x0d
     cb2:	8e 85       	ldd	r24, Y+14	; 0x0e
     cb4:	9f 85       	ldd	r25, Y+15	; 0x0f
     cb6:	0e 94 4e 0a 	call	0x149c	; 0x149c <__ftoa_engine>
     cba:	5c 01       	movw	r10, r24
     cbc:	b9 81       	ldd	r27, Y+1	; 0x01
     cbe:	bc 87       	std	Y+12, r27	; 0x0c
     cc0:	b0 ff       	sbrs	r27, 0
     cc2:	03 c0       	rjmp	.+6      	; 0xcca <vfprintf+0x164>
     cc4:	0d e2       	ldi	r16, 0x2D	; 45
     cc6:	b3 ff       	sbrs	r27, 3
     cc8:	07 c0       	rjmp	.+14     	; 0xcd8 <vfprintf+0x172>
     cca:	0b e2       	ldi	r16, 0x2B	; 43
     ccc:	61 fc       	sbrc	r6, 1
     cce:	04 c0       	rjmp	.+8      	; 0xcd8 <vfprintf+0x172>
     cd0:	06 2d       	mov	r16, r6
     cd2:	04 70       	andi	r16, 0x04	; 4
     cd4:	62 fc       	sbrc	r6, 2
     cd6:	00 e2       	ldi	r16, 0x20	; 32
     cd8:	ec 85       	ldd	r30, Y+12	; 0x0c
     cda:	ec 70       	andi	r30, 0x0C	; 12
     cdc:	5e 2e       	mov	r5, r30
     cde:	09 f4       	brne	.+2      	; 0xce2 <vfprintf+0x17c>
     ce0:	54 c0       	rjmp	.+168    	; 0xd8a <vfprintf+0x224>
     ce2:	01 11       	cpse	r16, r1
     ce4:	a2 c2       	rjmp	.+1348   	; 0x122a <vfprintf+0x6c4>
     ce6:	f3 e0       	ldi	r31, 0x03	; 3
     ce8:	51 2c       	mov	r5, r1
     cea:	f7 15       	cp	r31, r7
     cec:	a0 f4       	brcc	.+40     	; 0xd16 <vfprintf+0x1b0>
     cee:	83 e0       	ldi	r24, 0x03	; 3
     cf0:	57 2c       	mov	r5, r7
     cf2:	58 1a       	sub	r5, r24
     cf4:	63 fc       	sbrc	r6, 3
     cf6:	08 c0       	rjmp	.+16     	; 0xd08 <vfprintf+0x1a2>
     cf8:	b7 01       	movw	r22, r14
     cfa:	80 e2       	ldi	r24, 0x20	; 32
     cfc:	90 e0       	ldi	r25, 0x00	; 0
     cfe:	0e 94 96 0b 	call	0x172c	; 0x172c <fputc>
     d02:	5a 94       	dec	r5
     d04:	51 10       	cpse	r5, r1
     d06:	f8 cf       	rjmp	.-16     	; 0xcf8 <vfprintf+0x192>
     d08:	00 23       	and	r16, r16
     d0a:	29 f0       	breq	.+10     	; 0xd16 <vfprintf+0x1b0>
     d0c:	b7 01       	movw	r22, r14
     d0e:	80 2f       	mov	r24, r16
     d10:	90 e0       	ldi	r25, 0x00	; 0
     d12:	0e 94 96 0b 	call	0x172c	; 0x172c <fputc>
     d16:	fc 85       	ldd	r31, Y+12	; 0x0c
     d18:	08 e6       	ldi	r16, 0x68	; 104
     d1a:	10 e0       	ldi	r17, 0x00	; 0
     d1c:	f3 fd       	sbrc	r31, 3
     d1e:	02 c0       	rjmp	.+4      	; 0xd24 <vfprintf+0x1be>
     d20:	0c e6       	ldi	r16, 0x6C	; 108
     d22:	10 e0       	ldi	r17, 0x00	; 0
     d24:	26 2d       	mov	r18, r6
     d26:	20 71       	andi	r18, 0x10	; 16
     d28:	62 2e       	mov	r6, r18
     d2a:	f8 01       	movw	r30, r16
     d2c:	84 91       	lpm	r24, Z
     d2e:	81 11       	cpse	r24, r1
     d30:	23 c0       	rjmp	.+70     	; 0xd78 <vfprintf+0x212>
     d32:	55 20       	and	r5, r5
     d34:	09 f4       	brne	.+2      	; 0xd38 <vfprintf+0x1d2>
     d36:	46 cf       	rjmp	.-372    	; 0xbc4 <vfprintf+0x5e>
     d38:	b7 01       	movw	r22, r14
     d3a:	80 e2       	ldi	r24, 0x20	; 32
     d3c:	90 e0       	ldi	r25, 0x00	; 0
     d3e:	0e 94 96 0b 	call	0x172c	; 0x172c <fputc>
     d42:	5a 94       	dec	r5
     d44:	f6 cf       	rjmp	.-20     	; 0xd32 <vfprintf+0x1cc>
     d46:	9b e9       	ldi	r25, 0x9B	; 155
     d48:	98 0f       	add	r25, r24
     d4a:	93 30       	cpi	r25, 0x03	; 3
     d4c:	08 f0       	brcs	.+2      	; 0xd50 <vfprintf+0x1ea>
     d4e:	2d c1       	rjmp	.+602    	; 0xfaa <vfprintf+0x444>
     d50:	e8 94       	clt
     d52:	64 f8       	bld	r6, 4
     d54:	8c cf       	rjmp	.-232    	; 0xc6e <vfprintf+0x108>
     d56:	86 36       	cpi	r24, 0x66	; 102
     d58:	19 f4       	brne	.+6      	; 0xd60 <vfprintf+0x1fa>
     d5a:	68 94       	set
     d5c:	67 f8       	bld	r6, 7
     d5e:	91 cf       	rjmp	.-222    	; 0xc82 <vfprintf+0x11c>
     d60:	11 23       	and	r17, r17
     d62:	09 f4       	brne	.+2      	; 0xd66 <vfprintf+0x200>
     d64:	8e cf       	rjmp	.-228    	; 0xc82 <vfprintf+0x11c>
     d66:	11 50       	subi	r17, 0x01	; 1
     d68:	8c cf       	rjmp	.-232    	; 0xc82 <vfprintf+0x11c>
     d6a:	21 2f       	mov	r18, r17
     d6c:	18 30       	cpi	r17, 0x08	; 8
     d6e:	10 f0       	brcs	.+4      	; 0xd74 <vfprintf+0x20e>
     d70:	27 e0       	ldi	r18, 0x07	; 7
     d72:	17 e0       	ldi	r17, 0x07	; 7
     d74:	41 2c       	mov	r4, r1
     d76:	8f cf       	rjmp	.-226    	; 0xc96 <vfprintf+0x130>
     d78:	61 10       	cpse	r6, r1
     d7a:	80 52       	subi	r24, 0x20	; 32
     d7c:	b7 01       	movw	r22, r14
     d7e:	90 e0       	ldi	r25, 0x00	; 0
     d80:	0e 94 96 0b 	call	0x172c	; 0x172c <fputc>
     d84:	0f 5f       	subi	r16, 0xFF	; 255
     d86:	1f 4f       	sbci	r17, 0xFF	; 255
     d88:	d0 cf       	rjmp	.-96     	; 0xd2a <vfprintf+0x1c4>
     d8a:	67 fe       	sbrs	r6, 7
     d8c:	7a c0       	rjmp	.+244    	; 0xe82 <vfprintf+0x31c>
     d8e:	4a 0c       	add	r4, r10
     d90:	fc 85       	ldd	r31, Y+12	; 0x0c
     d92:	f4 ff       	sbrs	r31, 4
     d94:	04 c0       	rjmp	.+8      	; 0xd9e <vfprintf+0x238>
     d96:	8a 81       	ldd	r24, Y+2	; 0x02
     d98:	81 33       	cpi	r24, 0x31	; 49
     d9a:	09 f4       	brne	.+2      	; 0xd9e <vfprintf+0x238>
     d9c:	4a 94       	dec	r4
     d9e:	14 14       	cp	r1, r4
     da0:	0c f0       	brlt	.+2      	; 0xda4 <vfprintf+0x23e>
     da2:	92 c0       	rjmp	.+292    	; 0xec8 <vfprintf+0x362>
     da4:	28 e0       	ldi	r18, 0x08	; 8
     da6:	24 15       	cp	r18, r4
     da8:	10 f4       	brcc	.+4      	; 0xdae <vfprintf+0x248>
     daa:	88 e0       	ldi	r24, 0x08	; 8
     dac:	48 2e       	mov	r4, r24
     dae:	85 e0       	ldi	r24, 0x05	; 5
     db0:	90 e0       	ldi	r25, 0x00	; 0
     db2:	67 fe       	sbrs	r6, 7
     db4:	06 c0       	rjmp	.+12     	; 0xdc2 <vfprintf+0x25c>
     db6:	c5 01       	movw	r24, r10
     db8:	b7 fe       	sbrs	r11, 7
     dba:	02 c0       	rjmp	.+4      	; 0xdc0 <vfprintf+0x25a>
     dbc:	80 e0       	ldi	r24, 0x00	; 0
     dbe:	90 e0       	ldi	r25, 0x00	; 0
     dc0:	01 96       	adiw	r24, 0x01	; 1
     dc2:	01 11       	cpse	r16, r1
     dc4:	01 96       	adiw	r24, 0x01	; 1
     dc6:	11 23       	and	r17, r17
     dc8:	31 f0       	breq	.+12     	; 0xdd6 <vfprintf+0x270>
     dca:	21 2f       	mov	r18, r17
     dcc:	30 e0       	ldi	r19, 0x00	; 0
     dce:	2f 5f       	subi	r18, 0xFF	; 255
     dd0:	3f 4f       	sbci	r19, 0xFF	; 255
     dd2:	82 0f       	add	r24, r18
     dd4:	93 1f       	adc	r25, r19
     dd6:	78 16       	cp	r7, r24
     dd8:	19 06       	cpc	r1, r25
     dda:	19 f0       	breq	.+6      	; 0xde2 <vfprintf+0x27c>
     ddc:	14 f0       	brlt	.+4      	; 0xde2 <vfprintf+0x27c>
     dde:	57 2c       	mov	r5, r7
     de0:	58 1a       	sub	r5, r24
     de2:	86 2d       	mov	r24, r6
     de4:	89 70       	andi	r24, 0x09	; 9
     de6:	11 f4       	brne	.+4      	; 0xdec <vfprintf+0x286>
     de8:	51 10       	cpse	r5, r1
     dea:	73 c0       	rjmp	.+230    	; 0xed2 <vfprintf+0x36c>
     dec:	00 23       	and	r16, r16
     dee:	29 f0       	breq	.+10     	; 0xdfa <vfprintf+0x294>
     df0:	b7 01       	movw	r22, r14
     df2:	80 2f       	mov	r24, r16
     df4:	90 e0       	ldi	r25, 0x00	; 0
     df6:	0e 94 96 0b 	call	0x172c	; 0x172c <fputc>
     dfa:	63 fc       	sbrc	r6, 3
     dfc:	02 c0       	rjmp	.+4      	; 0xe02 <vfprintf+0x29c>
     dfe:	51 10       	cpse	r5, r1
     e00:	6f c0       	rjmp	.+222    	; 0xee0 <vfprintf+0x37a>
     e02:	67 fe       	sbrs	r6, 7
     e04:	88 c0       	rjmp	.+272    	; 0xf16 <vfprintf+0x3b0>
     e06:	35 01       	movw	r6, r10
     e08:	b7 fe       	sbrs	r11, 7
     e0a:	02 c0       	rjmp	.+4      	; 0xe10 <vfprintf+0x2aa>
     e0c:	71 2c       	mov	r7, r1
     e0e:	61 2c       	mov	r6, r1
     e10:	c5 01       	movw	r24, r10
     e12:	86 19       	sub	r24, r6
     e14:	97 09       	sbc	r25, r7
     e16:	a4 01       	movw	r20, r8
     e18:	48 0f       	add	r20, r24
     e1a:	59 1f       	adc	r21, r25
     e1c:	59 8b       	std	Y+17, r21	; 0x11
     e1e:	48 8b       	std	Y+16, r20	; 0x10
     e20:	b5 01       	movw	r22, r10
     e22:	64 19       	sub	r22, r4
     e24:	71 09       	sbc	r23, r1
     e26:	7b 8b       	std	Y+19, r23	; 0x13
     e28:	6a 8b       	std	Y+18, r22	; 0x12
     e2a:	01 2f       	mov	r16, r17
     e2c:	10 e0       	ldi	r17, 0x00	; 0
     e2e:	11 95       	neg	r17
     e30:	01 95       	neg	r16
     e32:	11 09       	sbc	r17, r1
     e34:	a6 14       	cp	r10, r6
     e36:	b7 04       	cpc	r11, r7
     e38:	0c f4       	brge	.+2      	; 0xe3c <vfprintf+0x2d6>
     e3a:	59 c0       	rjmp	.+178    	; 0xeee <vfprintf+0x388>
     e3c:	aa 89       	ldd	r26, Y+18	; 0x12
     e3e:	bb 89       	ldd	r27, Y+19	; 0x13
     e40:	a6 15       	cp	r26, r6
     e42:	b7 05       	cpc	r27, r7
     e44:	0c f0       	brlt	.+2      	; 0xe48 <vfprintf+0x2e2>
     e46:	53 c0       	rjmp	.+166    	; 0xeee <vfprintf+0x388>
     e48:	e8 89       	ldd	r30, Y+16	; 0x10
     e4a:	f9 89       	ldd	r31, Y+17	; 0x11
     e4c:	81 81       	ldd	r24, Z+1	; 0x01
     e4e:	f1 e0       	ldi	r31, 0x01	; 1
     e50:	6f 1a       	sub	r6, r31
     e52:	71 08       	sbc	r7, r1
     e54:	60 16       	cp	r6, r16
     e56:	71 06       	cpc	r7, r17
     e58:	0c f4       	brge	.+2      	; 0xe5c <vfprintf+0x2f6>
     e5a:	4b c0       	rjmp	.+150    	; 0xef2 <vfprintf+0x38c>
     e5c:	b7 01       	movw	r22, r14
     e5e:	90 e0       	ldi	r25, 0x00	; 0
     e60:	0e 94 96 0b 	call	0x172c	; 0x172c <fputc>
     e64:	2f ef       	ldi	r18, 0xFF	; 255
     e66:	62 16       	cp	r6, r18
     e68:	72 06       	cpc	r7, r18
     e6a:	29 f4       	brne	.+10     	; 0xe76 <vfprintf+0x310>
     e6c:	b7 01       	movw	r22, r14
     e6e:	8e e2       	ldi	r24, 0x2E	; 46
     e70:	90 e0       	ldi	r25, 0x00	; 0
     e72:	0e 94 96 0b 	call	0x172c	; 0x172c <fputc>
     e76:	88 89       	ldd	r24, Y+16	; 0x10
     e78:	99 89       	ldd	r25, Y+17	; 0x11
     e7a:	01 96       	adiw	r24, 0x01	; 1
     e7c:	99 8b       	std	Y+17, r25	; 0x11
     e7e:	88 8b       	std	Y+16, r24	; 0x10
     e80:	d9 cf       	rjmp	.-78     	; 0xe34 <vfprintf+0x2ce>
     e82:	66 fc       	sbrc	r6, 6
     e84:	94 cf       	rjmp	.-216    	; 0xdae <vfprintf+0x248>
     e86:	e1 2f       	mov	r30, r17
     e88:	f0 e0       	ldi	r31, 0x00	; 0
     e8a:	ea 15       	cp	r30, r10
     e8c:	fb 05       	cpc	r31, r11
     e8e:	3c f0       	brlt	.+14     	; 0xe9e <vfprintf+0x338>
     e90:	3c ef       	ldi	r19, 0xFC	; 252
     e92:	a3 16       	cp	r10, r19
     e94:	3f ef       	ldi	r19, 0xFF	; 255
     e96:	b3 06       	cpc	r11, r19
     e98:	14 f0       	brlt	.+4      	; 0xe9e <vfprintf+0x338>
     e9a:	68 94       	set
     e9c:	67 f8       	bld	r6, 7
     e9e:	32 96       	adiw	r30, 0x02	; 2
     ea0:	e8 0d       	add	r30, r8
     ea2:	f9 1d       	adc	r31, r9
     ea4:	01 c0       	rjmp	.+2      	; 0xea8 <vfprintf+0x342>
     ea6:	11 50       	subi	r17, 0x01	; 1
     ea8:	11 23       	and	r17, r17
     eaa:	19 f0       	breq	.+6      	; 0xeb2 <vfprintf+0x34c>
     eac:	82 91       	ld	r24, -Z
     eae:	80 33       	cpi	r24, 0x30	; 48
     eb0:	d1 f3       	breq	.-12     	; 0xea6 <vfprintf+0x340>
     eb2:	67 fe       	sbrs	r6, 7
     eb4:	7c cf       	rjmp	.-264    	; 0xdae <vfprintf+0x248>
     eb6:	44 24       	eor	r4, r4
     eb8:	43 94       	inc	r4
     eba:	41 0e       	add	r4, r17
     ebc:	1a 15       	cp	r17, r10
     ebe:	1b 04       	cpc	r1, r11
     ec0:	31 f0       	breq	.+12     	; 0xece <vfprintf+0x368>
     ec2:	2c f0       	brlt	.+10     	; 0xece <vfprintf+0x368>
     ec4:	1a 19       	sub	r17, r10
     ec6:	73 cf       	rjmp	.-282    	; 0xdae <vfprintf+0x248>
     ec8:	44 24       	eor	r4, r4
     eca:	43 94       	inc	r4
     ecc:	70 cf       	rjmp	.-288    	; 0xdae <vfprintf+0x248>
     ece:	10 e0       	ldi	r17, 0x00	; 0
     ed0:	6e cf       	rjmp	.-292    	; 0xdae <vfprintf+0x248>
     ed2:	b7 01       	movw	r22, r14
     ed4:	80 e2       	ldi	r24, 0x20	; 32
     ed6:	90 e0       	ldi	r25, 0x00	; 0
     ed8:	0e 94 96 0b 	call	0x172c	; 0x172c <fputc>
     edc:	5a 94       	dec	r5
     ede:	84 cf       	rjmp	.-248    	; 0xde8 <vfprintf+0x282>
     ee0:	b7 01       	movw	r22, r14
     ee2:	80 e3       	ldi	r24, 0x30	; 48
     ee4:	90 e0       	ldi	r25, 0x00	; 0
     ee6:	0e 94 96 0b 	call	0x172c	; 0x172c <fputc>
     eea:	5a 94       	dec	r5
     eec:	88 cf       	rjmp	.-240    	; 0xdfe <vfprintf+0x298>
     eee:	80 e3       	ldi	r24, 0x30	; 48
     ef0:	ae cf       	rjmp	.-164    	; 0xe4e <vfprintf+0x2e8>
     ef2:	a6 14       	cp	r10, r6
     ef4:	b7 04       	cpc	r11, r7
     ef6:	41 f4       	brne	.+16     	; 0xf08 <vfprintf+0x3a2>
     ef8:	9a 81       	ldd	r25, Y+2	; 0x02
     efa:	96 33       	cpi	r25, 0x36	; 54
     efc:	50 f4       	brcc	.+20     	; 0xf12 <vfprintf+0x3ac>
     efe:	95 33       	cpi	r25, 0x35	; 53
     f00:	19 f4       	brne	.+6      	; 0xf08 <vfprintf+0x3a2>
     f02:	3c 85       	ldd	r19, Y+12	; 0x0c
     f04:	34 ff       	sbrs	r19, 4
     f06:	05 c0       	rjmp	.+10     	; 0xf12 <vfprintf+0x3ac>
     f08:	b7 01       	movw	r22, r14
     f0a:	90 e0       	ldi	r25, 0x00	; 0
     f0c:	0e 94 96 0b 	call	0x172c	; 0x172c <fputc>
     f10:	10 cf       	rjmp	.-480    	; 0xd32 <vfprintf+0x1cc>
     f12:	81 e3       	ldi	r24, 0x31	; 49
     f14:	f9 cf       	rjmp	.-14     	; 0xf08 <vfprintf+0x3a2>
     f16:	8a 81       	ldd	r24, Y+2	; 0x02
     f18:	81 33       	cpi	r24, 0x31	; 49
     f1a:	19 f0       	breq	.+6      	; 0xf22 <vfprintf+0x3bc>
     f1c:	4c 85       	ldd	r20, Y+12	; 0x0c
     f1e:	4f 7e       	andi	r20, 0xEF	; 239
     f20:	4c 87       	std	Y+12, r20	; 0x0c
     f22:	b7 01       	movw	r22, r14
     f24:	90 e0       	ldi	r25, 0x00	; 0
     f26:	0e 94 96 0b 	call	0x172c	; 0x172c <fputc>
     f2a:	11 23       	and	r17, r17
     f2c:	99 f0       	breq	.+38     	; 0xf54 <vfprintf+0x3ee>
     f2e:	b7 01       	movw	r22, r14
     f30:	8e e2       	ldi	r24, 0x2E	; 46
     f32:	90 e0       	ldi	r25, 0x00	; 0
     f34:	0e 94 96 0b 	call	0x172c	; 0x172c <fputc>
     f38:	1e 5f       	subi	r17, 0xFE	; 254
     f3a:	02 e0       	ldi	r16, 0x02	; 2
     f3c:	80 2f       	mov	r24, r16
     f3e:	0f 5f       	subi	r16, 0xFF	; 255
     f40:	f4 01       	movw	r30, r8
     f42:	e8 0f       	add	r30, r24
     f44:	f1 1d       	adc	r31, r1
     f46:	80 81       	ld	r24, Z
     f48:	b7 01       	movw	r22, r14
     f4a:	90 e0       	ldi	r25, 0x00	; 0
     f4c:	0e 94 96 0b 	call	0x172c	; 0x172c <fputc>
     f50:	10 13       	cpse	r17, r16
     f52:	f4 cf       	rjmp	.-24     	; 0xf3c <vfprintf+0x3d6>
     f54:	85 e6       	ldi	r24, 0x65	; 101
     f56:	64 fc       	sbrc	r6, 4
     f58:	85 e4       	ldi	r24, 0x45	; 69
     f5a:	90 e0       	ldi	r25, 0x00	; 0
     f5c:	b7 01       	movw	r22, r14
     f5e:	0e 94 96 0b 	call	0x172c	; 0x172c <fputc>
     f62:	b7 fc       	sbrc	r11, 7
     f64:	06 c0       	rjmp	.+12     	; 0xf72 <vfprintf+0x40c>
     f66:	a1 14       	cp	r10, r1
     f68:	b1 04       	cpc	r11, r1
     f6a:	c1 f4       	brne	.+48     	; 0xf9c <vfprintf+0x436>
     f6c:	5c 85       	ldd	r21, Y+12	; 0x0c
     f6e:	54 ff       	sbrs	r21, 4
     f70:	15 c0       	rjmp	.+42     	; 0xf9c <vfprintf+0x436>
     f72:	b1 94       	neg	r11
     f74:	a1 94       	neg	r10
     f76:	b1 08       	sbc	r11, r1
     f78:	8d e2       	ldi	r24, 0x2D	; 45
     f7a:	b7 01       	movw	r22, r14
     f7c:	90 e0       	ldi	r25, 0x00	; 0
     f7e:	0e 94 96 0b 	call	0x172c	; 0x172c <fputc>
     f82:	80 e3       	ldi	r24, 0x30	; 48
     f84:	7a e0       	ldi	r23, 0x0A	; 10
     f86:	a7 16       	cp	r10, r23
     f88:	b1 04       	cpc	r11, r1
     f8a:	54 f4       	brge	.+20     	; 0xfa0 <vfprintf+0x43a>
     f8c:	b7 01       	movw	r22, r14
     f8e:	90 e0       	ldi	r25, 0x00	; 0
     f90:	0e 94 96 0b 	call	0x172c	; 0x172c <fputc>
     f94:	b7 01       	movw	r22, r14
     f96:	c5 01       	movw	r24, r10
     f98:	c0 96       	adiw	r24, 0x30	; 48
     f9a:	b8 cf       	rjmp	.-144    	; 0xf0c <vfprintf+0x3a6>
     f9c:	8b e2       	ldi	r24, 0x2B	; 43
     f9e:	ed cf       	rjmp	.-38     	; 0xf7a <vfprintf+0x414>
     fa0:	8f 5f       	subi	r24, 0xFF	; 255
     fa2:	6a e0       	ldi	r22, 0x0A	; 10
     fa4:	a6 1a       	sub	r10, r22
     fa6:	b1 08       	sbc	r11, r1
     fa8:	ed cf       	rjmp	.-38     	; 0xf84 <vfprintf+0x41e>
     faa:	83 36       	cpi	r24, 0x63	; 99
     fac:	b9 f0       	breq	.+46     	; 0xfdc <vfprintf+0x476>
     fae:	83 37       	cpi	r24, 0x73	; 115
     fb0:	09 f4       	brne	.+2      	; 0xfb4 <vfprintf+0x44e>
     fb2:	3a c0       	rjmp	.+116    	; 0x1028 <vfprintf+0x4c2>
     fb4:	83 35       	cpi	r24, 0x53	; 83
     fb6:	09 f0       	breq	.+2      	; 0xfba <vfprintf+0x454>
     fb8:	4d c0       	rjmp	.+154    	; 0x1054 <vfprintf+0x4ee>
     fba:	d5 01       	movw	r26, r10
     fbc:	ad 90       	ld	r10, X+
     fbe:	bd 90       	ld	r11, X+
     fc0:	6d 01       	movw	r12, r26
     fc2:	61 2f       	mov	r22, r17
     fc4:	70 e0       	ldi	r23, 0x00	; 0
     fc6:	66 fc       	sbrc	r6, 6
     fc8:	02 c0       	rjmp	.+4      	; 0xfce <vfprintf+0x468>
     fca:	6f ef       	ldi	r22, 0xFF	; 255
     fcc:	7f ef       	ldi	r23, 0xFF	; 255
     fce:	c5 01       	movw	r24, r10
     fd0:	0e 94 42 0b 	call	0x1684	; 0x1684 <strnlen_P>
     fd4:	8c 01       	movw	r16, r24
     fd6:	68 94       	set
     fd8:	67 f8       	bld	r6, 7
     fda:	0c c0       	rjmp	.+24     	; 0xff4 <vfprintf+0x48e>
     fdc:	65 01       	movw	r12, r10
     fde:	82 e0       	ldi	r24, 0x02	; 2
     fe0:	c8 0e       	add	r12, r24
     fe2:	d1 1c       	adc	r13, r1
     fe4:	d5 01       	movw	r26, r10
     fe6:	8c 91       	ld	r24, X
     fe8:	89 83       	std	Y+1, r24	; 0x01
     fea:	01 e0       	ldi	r16, 0x01	; 1
     fec:	10 e0       	ldi	r17, 0x00	; 0
     fee:	54 01       	movw	r10, r8
     ff0:	e8 94       	clt
     ff2:	67 f8       	bld	r6, 7
     ff4:	63 fc       	sbrc	r6, 3
     ff6:	04 c0       	rjmp	.+8      	; 0x1000 <vfprintf+0x49a>
     ff8:	70 16       	cp	r7, r16
     ffa:	11 06       	cpc	r1, r17
     ffc:	09 f0       	breq	.+2      	; 0x1000 <vfprintf+0x49a>
     ffe:	18 f5       	brcc	.+70     	; 0x1046 <vfprintf+0x4e0>
    1000:	57 2c       	mov	r5, r7
    1002:	01 15       	cp	r16, r1
    1004:	11 05       	cpc	r17, r1
    1006:	09 f4       	brne	.+2      	; 0x100a <vfprintf+0x4a4>
    1008:	94 ce       	rjmp	.-728    	; 0xd32 <vfprintf+0x1cc>
    100a:	f5 01       	movw	r30, r10
    100c:	67 fc       	sbrc	r6, 7
    100e:	85 91       	lpm	r24, Z+
    1010:	67 fe       	sbrs	r6, 7
    1012:	81 91       	ld	r24, Z+
    1014:	5f 01       	movw	r10, r30
    1016:	b7 01       	movw	r22, r14
    1018:	90 e0       	ldi	r25, 0x00	; 0
    101a:	0e 94 96 0b 	call	0x172c	; 0x172c <fputc>
    101e:	51 10       	cpse	r5, r1
    1020:	5a 94       	dec	r5
    1022:	01 50       	subi	r16, 0x01	; 1
    1024:	11 09       	sbc	r17, r1
    1026:	ed cf       	rjmp	.-38     	; 0x1002 <vfprintf+0x49c>
    1028:	f5 01       	movw	r30, r10
    102a:	a1 90       	ld	r10, Z+
    102c:	b1 90       	ld	r11, Z+
    102e:	6f 01       	movw	r12, r30
    1030:	61 2f       	mov	r22, r17
    1032:	70 e0       	ldi	r23, 0x00	; 0
    1034:	66 fc       	sbrc	r6, 6
    1036:	02 c0       	rjmp	.+4      	; 0x103c <vfprintf+0x4d6>
    1038:	6f ef       	ldi	r22, 0xFF	; 255
    103a:	7f ef       	ldi	r23, 0xFF	; 255
    103c:	c5 01       	movw	r24, r10
    103e:	0e 94 4d 0b 	call	0x169a	; 0x169a <strnlen>
    1042:	8c 01       	movw	r16, r24
    1044:	d5 cf       	rjmp	.-86     	; 0xff0 <vfprintf+0x48a>
    1046:	b7 01       	movw	r22, r14
    1048:	80 e2       	ldi	r24, 0x20	; 32
    104a:	90 e0       	ldi	r25, 0x00	; 0
    104c:	0e 94 96 0b 	call	0x172c	; 0x172c <fputc>
    1050:	7a 94       	dec	r7
    1052:	d2 cf       	rjmp	.-92     	; 0xff8 <vfprintf+0x492>
    1054:	84 36       	cpi	r24, 0x64	; 100
    1056:	19 f0       	breq	.+6      	; 0x105e <vfprintf+0x4f8>
    1058:	89 36       	cpi	r24, 0x69	; 105
    105a:	09 f0       	breq	.+2      	; 0x105e <vfprintf+0x4f8>
    105c:	6f c0       	rjmp	.+222    	; 0x113c <vfprintf+0x5d6>
    105e:	67 fe       	sbrs	r6, 7
    1060:	64 c0       	rjmp	.+200    	; 0x112a <vfprintf+0x5c4>
    1062:	f5 01       	movw	r30, r10
    1064:	61 91       	ld	r22, Z+
    1066:	71 91       	ld	r23, Z+
    1068:	81 91       	ld	r24, Z+
    106a:	91 91       	ld	r25, Z+
    106c:	6f 01       	movw	r12, r30
    106e:	b6 2d       	mov	r27, r6
    1070:	bf 76       	andi	r27, 0x6F	; 111
    1072:	6b 2e       	mov	r6, r27
    1074:	97 ff       	sbrs	r25, 7
    1076:	09 c0       	rjmp	.+18     	; 0x108a <vfprintf+0x524>
    1078:	90 95       	com	r25
    107a:	80 95       	com	r24
    107c:	70 95       	com	r23
    107e:	61 95       	neg	r22
    1080:	7f 4f       	sbci	r23, 0xFF	; 255
    1082:	8f 4f       	sbci	r24, 0xFF	; 255
    1084:	9f 4f       	sbci	r25, 0xFF	; 255
    1086:	68 94       	set
    1088:	67 f8       	bld	r6, 7
    108a:	2a e0       	ldi	r18, 0x0A	; 10
    108c:	30 e0       	ldi	r19, 0x00	; 0
    108e:	a4 01       	movw	r20, r8
    1090:	0e 94 de 0b 	call	0x17bc	; 0x17bc <__ultoa_invert>
    1094:	a8 2e       	mov	r10, r24
    1096:	a8 18       	sub	r10, r8
    1098:	ba 2c       	mov	r11, r10
    109a:	06 2d       	mov	r16, r6
    109c:	66 fe       	sbrs	r6, 6
    109e:	0a c0       	rjmp	.+20     	; 0x10b4 <vfprintf+0x54e>
    10a0:	0e 7f       	andi	r16, 0xFE	; 254
    10a2:	a1 16       	cp	r10, r17
    10a4:	38 f4       	brcc	.+14     	; 0x10b4 <vfprintf+0x54e>
    10a6:	64 fe       	sbrs	r6, 4
    10a8:	04 c0       	rjmp	.+8      	; 0x10b2 <vfprintf+0x54c>
    10aa:	62 fc       	sbrc	r6, 2
    10ac:	02 c0       	rjmp	.+4      	; 0x10b2 <vfprintf+0x54c>
    10ae:	06 2d       	mov	r16, r6
    10b0:	0e 7e       	andi	r16, 0xEE	; 238
    10b2:	b1 2e       	mov	r11, r17
    10b4:	04 ff       	sbrs	r16, 4
    10b6:	8e c0       	rjmp	.+284    	; 0x11d4 <vfprintf+0x66e>
    10b8:	fe 01       	movw	r30, r28
    10ba:	ea 0d       	add	r30, r10
    10bc:	f1 1d       	adc	r31, r1
    10be:	80 81       	ld	r24, Z
    10c0:	80 33       	cpi	r24, 0x30	; 48
    10c2:	09 f0       	breq	.+2      	; 0x10c6 <vfprintf+0x560>
    10c4:	80 c0       	rjmp	.+256    	; 0x11c6 <vfprintf+0x660>
    10c6:	09 7e       	andi	r16, 0xE9	; 233
    10c8:	50 2f       	mov	r21, r16
    10ca:	58 70       	andi	r21, 0x08	; 8
    10cc:	55 2e       	mov	r5, r21
    10ce:	03 fd       	sbrc	r16, 3
    10d0:	90 c0       	rjmp	.+288    	; 0x11f2 <vfprintf+0x68c>
    10d2:	00 ff       	sbrs	r16, 0
    10d4:	8a c0       	rjmp	.+276    	; 0x11ea <vfprintf+0x684>
    10d6:	1a 2d       	mov	r17, r10
    10d8:	b7 14       	cp	r11, r7
    10da:	10 f4       	brcc	.+4      	; 0x10e0 <vfprintf+0x57a>
    10dc:	17 0d       	add	r17, r7
    10de:	1b 19       	sub	r17, r11
    10e0:	04 ff       	sbrs	r16, 4
    10e2:	8d c0       	rjmp	.+282    	; 0x11fe <vfprintf+0x698>
    10e4:	b7 01       	movw	r22, r14
    10e6:	80 e3       	ldi	r24, 0x30	; 48
    10e8:	90 e0       	ldi	r25, 0x00	; 0
    10ea:	0e 94 96 0b 	call	0x172c	; 0x172c <fputc>
    10ee:	02 ff       	sbrs	r16, 2
    10f0:	07 c0       	rjmp	.+14     	; 0x1100 <vfprintf+0x59a>
    10f2:	88 e7       	ldi	r24, 0x78	; 120
    10f4:	01 fd       	sbrc	r16, 1
    10f6:	88 e5       	ldi	r24, 0x58	; 88
    10f8:	90 e0       	ldi	r25, 0x00	; 0
    10fa:	b7 01       	movw	r22, r14
    10fc:	0e 94 96 0b 	call	0x172c	; 0x172c <fputc>
    1100:	a1 16       	cp	r10, r17
    1102:	08 f4       	brcc	.+2      	; 0x1106 <vfprintf+0x5a0>
    1104:	88 c0       	rjmp	.+272    	; 0x1216 <vfprintf+0x6b0>
    1106:	aa 94       	dec	r10
    1108:	0a 2d       	mov	r16, r10
    110a:	10 e0       	ldi	r17, 0x00	; 0
    110c:	0f 5f       	subi	r16, 0xFF	; 255
    110e:	1f 4f       	sbci	r17, 0xFF	; 255
    1110:	08 0d       	add	r16, r8
    1112:	19 1d       	adc	r17, r9
    1114:	d8 01       	movw	r26, r16
    1116:	8e 91       	ld	r24, -X
    1118:	8d 01       	movw	r16, r26
    111a:	b7 01       	movw	r22, r14
    111c:	90 e0       	ldi	r25, 0x00	; 0
    111e:	0e 94 96 0b 	call	0x172c	; 0x172c <fputc>
    1122:	08 15       	cp	r16, r8
    1124:	19 05       	cpc	r17, r9
    1126:	b1 f7       	brne	.-20     	; 0x1114 <vfprintf+0x5ae>
    1128:	04 ce       	rjmp	.-1016   	; 0xd32 <vfprintf+0x1cc>
    112a:	d5 01       	movw	r26, r10
    112c:	6d 91       	ld	r22, X+
    112e:	7d 91       	ld	r23, X+
    1130:	6d 01       	movw	r12, r26
    1132:	07 2e       	mov	r0, r23
    1134:	00 0c       	add	r0, r0
    1136:	88 0b       	sbc	r24, r24
    1138:	99 0b       	sbc	r25, r25
    113a:	99 cf       	rjmp	.-206    	; 0x106e <vfprintf+0x508>
    113c:	06 2d       	mov	r16, r6
    113e:	85 37       	cpi	r24, 0x75	; 117
    1140:	e1 f4       	brne	.+56     	; 0x117a <vfprintf+0x614>
    1142:	0f 7e       	andi	r16, 0xEF	; 239
    1144:	2a e0       	ldi	r18, 0x0A	; 10
    1146:	30 e0       	ldi	r19, 0x00	; 0
    1148:	07 ff       	sbrs	r16, 7
    114a:	35 c0       	rjmp	.+106    	; 0x11b6 <vfprintf+0x650>
    114c:	d5 01       	movw	r26, r10
    114e:	4d 91       	ld	r20, X+
    1150:	5d 91       	ld	r21, X+
    1152:	6d 91       	ld	r22, X+
    1154:	7d 91       	ld	r23, X+
    1156:	6d 01       	movw	r12, r26
    1158:	4c 87       	std	Y+12, r20	; 0x0c
    115a:	5d 87       	std	Y+13, r21	; 0x0d
    115c:	6e 87       	std	Y+14, r22	; 0x0e
    115e:	7f 87       	std	Y+15, r23	; 0x0f
    1160:	a4 01       	movw	r20, r8
    1162:	6c 85       	ldd	r22, Y+12	; 0x0c
    1164:	7d 85       	ldd	r23, Y+13	; 0x0d
    1166:	8e 85       	ldd	r24, Y+14	; 0x0e
    1168:	9f 85       	ldd	r25, Y+15	; 0x0f
    116a:	0e 94 de 0b 	call	0x17bc	; 0x17bc <__ultoa_invert>
    116e:	a8 2e       	mov	r10, r24
    1170:	a8 18       	sub	r10, r8
    1172:	60 2e       	mov	r6, r16
    1174:	e8 94       	clt
    1176:	67 f8       	bld	r6, 7
    1178:	8f cf       	rjmp	.-226    	; 0x1098 <vfprintf+0x532>
    117a:	09 7f       	andi	r16, 0xF9	; 249
    117c:	80 37       	cpi	r24, 0x70	; 112
    117e:	91 f0       	breq	.+36     	; 0x11a4 <vfprintf+0x63e>
    1180:	58 f4       	brcc	.+22     	; 0x1198 <vfprintf+0x632>
    1182:	88 35       	cpi	r24, 0x58	; 88
    1184:	89 f0       	breq	.+34     	; 0x11a8 <vfprintf+0x642>
    1186:	8f 36       	cpi	r24, 0x6F	; 111
    1188:	a1 f0       	breq	.+40     	; 0x11b2 <vfprintf+0x64c>
    118a:	f7 01       	movw	r30, r14
    118c:	86 81       	ldd	r24, Z+6	; 0x06
    118e:	97 81       	ldd	r25, Z+7	; 0x07
    1190:	63 96       	adiw	r28, 0x13	; 19
    1192:	e2 e1       	ldi	r30, 0x12	; 18
    1194:	0c 94 38 09 	jmp	0x1270	; 0x1270 <__epilogue_restores__>
    1198:	88 37       	cpi	r24, 0x78	; 120
    119a:	b9 f7       	brne	.-18     	; 0x118a <vfprintf+0x624>
    119c:	04 fd       	sbrc	r16, 4
    119e:	04 60       	ori	r16, 0x04	; 4
    11a0:	20 e1       	ldi	r18, 0x10	; 16
    11a2:	d1 cf       	rjmp	.-94     	; 0x1146 <vfprintf+0x5e0>
    11a4:	00 61       	ori	r16, 0x10	; 16
    11a6:	fa cf       	rjmp	.-12     	; 0x119c <vfprintf+0x636>
    11a8:	64 fc       	sbrc	r6, 4
    11aa:	06 60       	ori	r16, 0x06	; 6
    11ac:	20 e1       	ldi	r18, 0x10	; 16
    11ae:	32 e0       	ldi	r19, 0x02	; 2
    11b0:	cb cf       	rjmp	.-106    	; 0x1148 <vfprintf+0x5e2>
    11b2:	28 e0       	ldi	r18, 0x08	; 8
    11b4:	c8 cf       	rjmp	.-112    	; 0x1146 <vfprintf+0x5e0>
    11b6:	f5 01       	movw	r30, r10
    11b8:	81 91       	ld	r24, Z+
    11ba:	91 91       	ld	r25, Z+
    11bc:	6f 01       	movw	r12, r30
    11be:	ac 01       	movw	r20, r24
    11c0:	70 e0       	ldi	r23, 0x00	; 0
    11c2:	60 e0       	ldi	r22, 0x00	; 0
    11c4:	c9 cf       	rjmp	.-110    	; 0x1158 <vfprintf+0x5f2>
    11c6:	02 fd       	sbrc	r16, 2
    11c8:	02 c0       	rjmp	.+4      	; 0x11ce <vfprintf+0x668>
    11ca:	b3 94       	inc	r11
    11cc:	7d cf       	rjmp	.-262    	; 0x10c8 <vfprintf+0x562>
    11ce:	b3 94       	inc	r11
    11d0:	b3 94       	inc	r11
    11d2:	7a cf       	rjmp	.-268    	; 0x10c8 <vfprintf+0x562>
    11d4:	80 2f       	mov	r24, r16
    11d6:	86 78       	andi	r24, 0x86	; 134
    11d8:	09 f4       	brne	.+2      	; 0x11dc <vfprintf+0x676>
    11da:	76 cf       	rjmp	.-276    	; 0x10c8 <vfprintf+0x562>
    11dc:	f6 cf       	rjmp	.-20     	; 0x11ca <vfprintf+0x664>
    11de:	b7 01       	movw	r22, r14
    11e0:	80 e2       	ldi	r24, 0x20	; 32
    11e2:	90 e0       	ldi	r25, 0x00	; 0
    11e4:	0e 94 96 0b 	call	0x172c	; 0x172c <fputc>
    11e8:	b3 94       	inc	r11
    11ea:	b7 14       	cp	r11, r7
    11ec:	c0 f3       	brcs	.-16     	; 0x11de <vfprintf+0x678>
    11ee:	51 2c       	mov	r5, r1
    11f0:	77 cf       	rjmp	.-274    	; 0x10e0 <vfprintf+0x57a>
    11f2:	57 2c       	mov	r5, r7
    11f4:	5b 18       	sub	r5, r11
    11f6:	b7 14       	cp	r11, r7
    11f8:	08 f4       	brcc	.+2      	; 0x11fc <vfprintf+0x696>
    11fa:	72 cf       	rjmp	.-284    	; 0x10e0 <vfprintf+0x57a>
    11fc:	f8 cf       	rjmp	.-16     	; 0x11ee <vfprintf+0x688>
    11fe:	80 2f       	mov	r24, r16
    1200:	86 78       	andi	r24, 0x86	; 134
    1202:	09 f4       	brne	.+2      	; 0x1206 <vfprintf+0x6a0>
    1204:	7d cf       	rjmp	.-262    	; 0x1100 <vfprintf+0x59a>
    1206:	8b e2       	ldi	r24, 0x2B	; 43
    1208:	01 ff       	sbrs	r16, 1
    120a:	80 e2       	ldi	r24, 0x20	; 32
    120c:	07 fd       	sbrc	r16, 7
    120e:	8d e2       	ldi	r24, 0x2D	; 45
    1210:	b7 01       	movw	r22, r14
    1212:	90 e0       	ldi	r25, 0x00	; 0
    1214:	73 cf       	rjmp	.-282    	; 0x10fc <vfprintf+0x596>
    1216:	b7 01       	movw	r22, r14
    1218:	80 e3       	ldi	r24, 0x30	; 48
    121a:	90 e0       	ldi	r25, 0x00	; 0
    121c:	0e 94 96 0b 	call	0x172c	; 0x172c <fputc>
    1220:	11 50       	subi	r17, 0x01	; 1
    1222:	6e cf       	rjmp	.-292    	; 0x1100 <vfprintf+0x59a>
    1224:	8f ef       	ldi	r24, 0xFF	; 255
    1226:	9f ef       	ldi	r25, 0xFF	; 255
    1228:	b3 cf       	rjmp	.-154    	; 0x1190 <vfprintf+0x62a>
    122a:	24 e0       	ldi	r18, 0x04	; 4
    122c:	51 2c       	mov	r5, r1
    122e:	27 15       	cp	r18, r7
    1230:	08 f0       	brcs	.+2      	; 0x1234 <vfprintf+0x6ce>
    1232:	6c cd       	rjmp	.-1320   	; 0xd0c <vfprintf+0x1a6>
    1234:	84 e0       	ldi	r24, 0x04	; 4
    1236:	5c cd       	rjmp	.-1352   	; 0xcf0 <vfprintf+0x18a>

00001238 <__prologue_saves__>:
    1238:	2f 92       	push	r2
    123a:	3f 92       	push	r3
    123c:	4f 92       	push	r4
    123e:	5f 92       	push	r5
    1240:	6f 92       	push	r6
    1242:	7f 92       	push	r7
    1244:	8f 92       	push	r8
    1246:	9f 92       	push	r9
    1248:	af 92       	push	r10
    124a:	bf 92       	push	r11
    124c:	cf 92       	push	r12
    124e:	df 92       	push	r13
    1250:	ef 92       	push	r14
    1252:	ff 92       	push	r15
    1254:	0f 93       	push	r16
    1256:	1f 93       	push	r17
    1258:	cf 93       	push	r28
    125a:	df 93       	push	r29
    125c:	cd b7       	in	r28, 0x3d	; 61
    125e:	de b7       	in	r29, 0x3e	; 62
    1260:	ca 1b       	sub	r28, r26
    1262:	db 0b       	sbc	r29, r27
    1264:	0f b6       	in	r0, 0x3f	; 63
    1266:	f8 94       	cli
    1268:	de bf       	out	0x3e, r29	; 62
    126a:	0f be       	out	0x3f, r0	; 63
    126c:	cd bf       	out	0x3d, r28	; 61
    126e:	09 94       	ijmp

00001270 <__epilogue_restores__>:
    1270:	2a 88       	ldd	r2, Y+18	; 0x12
    1272:	39 88       	ldd	r3, Y+17	; 0x11
    1274:	48 88       	ldd	r4, Y+16	; 0x10
    1276:	5f 84       	ldd	r5, Y+15	; 0x0f
    1278:	6e 84       	ldd	r6, Y+14	; 0x0e
    127a:	7d 84       	ldd	r7, Y+13	; 0x0d
    127c:	8c 84       	ldd	r8, Y+12	; 0x0c
    127e:	9b 84       	ldd	r9, Y+11	; 0x0b
    1280:	aa 84       	ldd	r10, Y+10	; 0x0a
    1282:	b9 84       	ldd	r11, Y+9	; 0x09
    1284:	c8 84       	ldd	r12, Y+8	; 0x08
    1286:	df 80       	ldd	r13, Y+7	; 0x07
    1288:	ee 80       	ldd	r14, Y+6	; 0x06
    128a:	fd 80       	ldd	r15, Y+5	; 0x05
    128c:	0c 81       	ldd	r16, Y+4	; 0x04
    128e:	1b 81       	ldd	r17, Y+3	; 0x03
    1290:	aa 81       	ldd	r26, Y+2	; 0x02
    1292:	b9 81       	ldd	r27, Y+1	; 0x01
    1294:	ce 0f       	add	r28, r30
    1296:	d1 1d       	adc	r29, r1
    1298:	0f b6       	in	r0, 0x3f	; 63
    129a:	f8 94       	cli
    129c:	de bf       	out	0x3e, r29	; 62
    129e:	0f be       	out	0x3f, r0	; 63
    12a0:	cd bf       	out	0x3d, r28	; 61
    12a2:	ed 01       	movw	r28, r26
    12a4:	08 95       	ret

000012a6 <__floatunsisf>:
    12a6:	e8 94       	clt
    12a8:	09 c0       	rjmp	.+18     	; 0x12bc <__floatsisf+0x12>

000012aa <__floatsisf>:
    12aa:	97 fb       	bst	r25, 7
    12ac:	3e f4       	brtc	.+14     	; 0x12bc <__floatsisf+0x12>
    12ae:	90 95       	com	r25
    12b0:	80 95       	com	r24
    12b2:	70 95       	com	r23
    12b4:	61 95       	neg	r22
    12b6:	7f 4f       	sbci	r23, 0xFF	; 255
    12b8:	8f 4f       	sbci	r24, 0xFF	; 255
    12ba:	9f 4f       	sbci	r25, 0xFF	; 255
    12bc:	99 23       	and	r25, r25
    12be:	a9 f0       	breq	.+42     	; 0x12ea <__floatsisf+0x40>
    12c0:	f9 2f       	mov	r31, r25
    12c2:	96 e9       	ldi	r25, 0x96	; 150
    12c4:	bb 27       	eor	r27, r27
    12c6:	93 95       	inc	r25
    12c8:	f6 95       	lsr	r31
    12ca:	87 95       	ror	r24
    12cc:	77 95       	ror	r23
    12ce:	67 95       	ror	r22
    12d0:	b7 95       	ror	r27
    12d2:	f1 11       	cpse	r31, r1
    12d4:	f8 cf       	rjmp	.-16     	; 0x12c6 <__floatsisf+0x1c>
    12d6:	fa f4       	brpl	.+62     	; 0x1316 <__floatsisf+0x6c>
    12d8:	bb 0f       	add	r27, r27
    12da:	11 f4       	brne	.+4      	; 0x12e0 <__floatsisf+0x36>
    12dc:	60 ff       	sbrs	r22, 0
    12de:	1b c0       	rjmp	.+54     	; 0x1316 <__floatsisf+0x6c>
    12e0:	6f 5f       	subi	r22, 0xFF	; 255
    12e2:	7f 4f       	sbci	r23, 0xFF	; 255
    12e4:	8f 4f       	sbci	r24, 0xFF	; 255
    12e6:	9f 4f       	sbci	r25, 0xFF	; 255
    12e8:	16 c0       	rjmp	.+44     	; 0x1316 <__floatsisf+0x6c>
    12ea:	88 23       	and	r24, r24
    12ec:	11 f0       	breq	.+4      	; 0x12f2 <__floatsisf+0x48>
    12ee:	96 e9       	ldi	r25, 0x96	; 150
    12f0:	11 c0       	rjmp	.+34     	; 0x1314 <__floatsisf+0x6a>
    12f2:	77 23       	and	r23, r23
    12f4:	21 f0       	breq	.+8      	; 0x12fe <__floatsisf+0x54>
    12f6:	9e e8       	ldi	r25, 0x8E	; 142
    12f8:	87 2f       	mov	r24, r23
    12fa:	76 2f       	mov	r23, r22
    12fc:	05 c0       	rjmp	.+10     	; 0x1308 <__floatsisf+0x5e>
    12fe:	66 23       	and	r22, r22
    1300:	71 f0       	breq	.+28     	; 0x131e <__floatsisf+0x74>
    1302:	96 e8       	ldi	r25, 0x86	; 134
    1304:	86 2f       	mov	r24, r22
    1306:	70 e0       	ldi	r23, 0x00	; 0
    1308:	60 e0       	ldi	r22, 0x00	; 0
    130a:	2a f0       	brmi	.+10     	; 0x1316 <__floatsisf+0x6c>
    130c:	9a 95       	dec	r25
    130e:	66 0f       	add	r22, r22
    1310:	77 1f       	adc	r23, r23
    1312:	88 1f       	adc	r24, r24
    1314:	da f7       	brpl	.-10     	; 0x130c <__floatsisf+0x62>
    1316:	88 0f       	add	r24, r24
    1318:	96 95       	lsr	r25
    131a:	87 95       	ror	r24
    131c:	97 f9       	bld	r25, 7
    131e:	08 95       	ret

00001320 <__mulsf3>:
    1320:	0e 94 a3 09 	call	0x1346	; 0x1346 <__mulsf3x>
    1324:	0c 94 14 0a 	jmp	0x1428	; 0x1428 <__fp_round>
    1328:	0e 94 06 0a 	call	0x140c	; 0x140c <__fp_pscA>
    132c:	38 f0       	brcs	.+14     	; 0x133c <__mulsf3+0x1c>
    132e:	0e 94 0d 0a 	call	0x141a	; 0x141a <__fp_pscB>
    1332:	20 f0       	brcs	.+8      	; 0x133c <__mulsf3+0x1c>
    1334:	95 23       	and	r25, r21
    1336:	11 f0       	breq	.+4      	; 0x133c <__mulsf3+0x1c>
    1338:	0c 94 fd 09 	jmp	0x13fa	; 0x13fa <__fp_inf>
    133c:	0c 94 03 0a 	jmp	0x1406	; 0x1406 <__fp_nan>
    1340:	11 24       	eor	r1, r1
    1342:	0c 94 48 0a 	jmp	0x1490	; 0x1490 <__fp_szero>

00001346 <__mulsf3x>:
    1346:	0e 94 25 0a 	call	0x144a	; 0x144a <__fp_split3>
    134a:	70 f3       	brcs	.-36     	; 0x1328 <__mulsf3+0x8>

0000134c <__mulsf3_pse>:
    134c:	95 9f       	mul	r25, r21
    134e:	c1 f3       	breq	.-16     	; 0x1340 <__mulsf3+0x20>
    1350:	95 0f       	add	r25, r21
    1352:	50 e0       	ldi	r21, 0x00	; 0
    1354:	55 1f       	adc	r21, r21
    1356:	62 9f       	mul	r22, r18
    1358:	f0 01       	movw	r30, r0
    135a:	72 9f       	mul	r23, r18
    135c:	bb 27       	eor	r27, r27
    135e:	f0 0d       	add	r31, r0
    1360:	b1 1d       	adc	r27, r1
    1362:	63 9f       	mul	r22, r19
    1364:	aa 27       	eor	r26, r26
    1366:	f0 0d       	add	r31, r0
    1368:	b1 1d       	adc	r27, r1
    136a:	aa 1f       	adc	r26, r26
    136c:	64 9f       	mul	r22, r20
    136e:	66 27       	eor	r22, r22
    1370:	b0 0d       	add	r27, r0
    1372:	a1 1d       	adc	r26, r1
    1374:	66 1f       	adc	r22, r22
    1376:	82 9f       	mul	r24, r18
    1378:	22 27       	eor	r18, r18
    137a:	b0 0d       	add	r27, r0
    137c:	a1 1d       	adc	r26, r1
    137e:	62 1f       	adc	r22, r18
    1380:	73 9f       	mul	r23, r19
    1382:	b0 0d       	add	r27, r0
    1384:	a1 1d       	adc	r26, r1
    1386:	62 1f       	adc	r22, r18
    1388:	83 9f       	mul	r24, r19
    138a:	a0 0d       	add	r26, r0
    138c:	61 1d       	adc	r22, r1
    138e:	22 1f       	adc	r18, r18
    1390:	74 9f       	mul	r23, r20
    1392:	33 27       	eor	r19, r19
    1394:	a0 0d       	add	r26, r0
    1396:	61 1d       	adc	r22, r1
    1398:	23 1f       	adc	r18, r19
    139a:	84 9f       	mul	r24, r20
    139c:	60 0d       	add	r22, r0
    139e:	21 1d       	adc	r18, r1
    13a0:	82 2f       	mov	r24, r18
    13a2:	76 2f       	mov	r23, r22
    13a4:	6a 2f       	mov	r22, r26
    13a6:	11 24       	eor	r1, r1
    13a8:	9f 57       	subi	r25, 0x7F	; 127
    13aa:	50 40       	sbci	r21, 0x00	; 0
    13ac:	9a f0       	brmi	.+38     	; 0x13d4 <__mulsf3_pse+0x88>
    13ae:	f1 f0       	breq	.+60     	; 0x13ec <__mulsf3_pse+0xa0>
    13b0:	88 23       	and	r24, r24
    13b2:	4a f0       	brmi	.+18     	; 0x13c6 <__mulsf3_pse+0x7a>
    13b4:	ee 0f       	add	r30, r30
    13b6:	ff 1f       	adc	r31, r31
    13b8:	bb 1f       	adc	r27, r27
    13ba:	66 1f       	adc	r22, r22
    13bc:	77 1f       	adc	r23, r23
    13be:	88 1f       	adc	r24, r24
    13c0:	91 50       	subi	r25, 0x01	; 1
    13c2:	50 40       	sbci	r21, 0x00	; 0
    13c4:	a9 f7       	brne	.-22     	; 0x13b0 <__mulsf3_pse+0x64>
    13c6:	9e 3f       	cpi	r25, 0xFE	; 254
    13c8:	51 05       	cpc	r21, r1
    13ca:	80 f0       	brcs	.+32     	; 0x13ec <__mulsf3_pse+0xa0>
    13cc:	0c 94 fd 09 	jmp	0x13fa	; 0x13fa <__fp_inf>
    13d0:	0c 94 48 0a 	jmp	0x1490	; 0x1490 <__fp_szero>
    13d4:	5f 3f       	cpi	r21, 0xFF	; 255
    13d6:	e4 f3       	brlt	.-8      	; 0x13d0 <__mulsf3_pse+0x84>
    13d8:	98 3e       	cpi	r25, 0xE8	; 232
    13da:	d4 f3       	brlt	.-12     	; 0x13d0 <__mulsf3_pse+0x84>
    13dc:	86 95       	lsr	r24
    13de:	77 95       	ror	r23
    13e0:	67 95       	ror	r22
    13e2:	b7 95       	ror	r27
    13e4:	f7 95       	ror	r31
    13e6:	e7 95       	ror	r30
    13e8:	9f 5f       	subi	r25, 0xFF	; 255
    13ea:	c1 f7       	brne	.-16     	; 0x13dc <__mulsf3_pse+0x90>
    13ec:	fe 2b       	or	r31, r30
    13ee:	88 0f       	add	r24, r24
    13f0:	91 1d       	adc	r25, r1
    13f2:	96 95       	lsr	r25
    13f4:	87 95       	ror	r24
    13f6:	97 f9       	bld	r25, 7
    13f8:	08 95       	ret

000013fa <__fp_inf>:
    13fa:	97 f9       	bld	r25, 7
    13fc:	9f 67       	ori	r25, 0x7F	; 127
    13fe:	80 e8       	ldi	r24, 0x80	; 128
    1400:	70 e0       	ldi	r23, 0x00	; 0
    1402:	60 e0       	ldi	r22, 0x00	; 0
    1404:	08 95       	ret

00001406 <__fp_nan>:
    1406:	9f ef       	ldi	r25, 0xFF	; 255
    1408:	80 ec       	ldi	r24, 0xC0	; 192
    140a:	08 95       	ret

0000140c <__fp_pscA>:
    140c:	00 24       	eor	r0, r0
    140e:	0a 94       	dec	r0
    1410:	16 16       	cp	r1, r22
    1412:	17 06       	cpc	r1, r23
    1414:	18 06       	cpc	r1, r24
    1416:	09 06       	cpc	r0, r25
    1418:	08 95       	ret

0000141a <__fp_pscB>:
    141a:	00 24       	eor	r0, r0
    141c:	0a 94       	dec	r0
    141e:	12 16       	cp	r1, r18
    1420:	13 06       	cpc	r1, r19
    1422:	14 06       	cpc	r1, r20
    1424:	05 06       	cpc	r0, r21
    1426:	08 95       	ret

00001428 <__fp_round>:
    1428:	09 2e       	mov	r0, r25
    142a:	03 94       	inc	r0
    142c:	00 0c       	add	r0, r0
    142e:	11 f4       	brne	.+4      	; 0x1434 <__fp_round+0xc>
    1430:	88 23       	and	r24, r24
    1432:	52 f0       	brmi	.+20     	; 0x1448 <__fp_round+0x20>
    1434:	bb 0f       	add	r27, r27
    1436:	40 f4       	brcc	.+16     	; 0x1448 <__fp_round+0x20>
    1438:	bf 2b       	or	r27, r31
    143a:	11 f4       	brne	.+4      	; 0x1440 <__fp_round+0x18>
    143c:	60 ff       	sbrs	r22, 0
    143e:	04 c0       	rjmp	.+8      	; 0x1448 <__fp_round+0x20>
    1440:	6f 5f       	subi	r22, 0xFF	; 255
    1442:	7f 4f       	sbci	r23, 0xFF	; 255
    1444:	8f 4f       	sbci	r24, 0xFF	; 255
    1446:	9f 4f       	sbci	r25, 0xFF	; 255
    1448:	08 95       	ret

0000144a <__fp_split3>:
    144a:	57 fd       	sbrc	r21, 7
    144c:	90 58       	subi	r25, 0x80	; 128
    144e:	44 0f       	add	r20, r20
    1450:	55 1f       	adc	r21, r21
    1452:	59 f0       	breq	.+22     	; 0x146a <__fp_splitA+0x10>
    1454:	5f 3f       	cpi	r21, 0xFF	; 255
    1456:	71 f0       	breq	.+28     	; 0x1474 <__fp_splitA+0x1a>
    1458:	47 95       	ror	r20

0000145a <__fp_splitA>:
    145a:	88 0f       	add	r24, r24
    145c:	97 fb       	bst	r25, 7
    145e:	99 1f       	adc	r25, r25
    1460:	61 f0       	breq	.+24     	; 0x147a <__fp_splitA+0x20>
    1462:	9f 3f       	cpi	r25, 0xFF	; 255
    1464:	79 f0       	breq	.+30     	; 0x1484 <__fp_splitA+0x2a>
    1466:	87 95       	ror	r24
    1468:	08 95       	ret
    146a:	12 16       	cp	r1, r18
    146c:	13 06       	cpc	r1, r19
    146e:	14 06       	cpc	r1, r20
    1470:	55 1f       	adc	r21, r21
    1472:	f2 cf       	rjmp	.-28     	; 0x1458 <__fp_split3+0xe>
    1474:	46 95       	lsr	r20
    1476:	f1 df       	rcall	.-30     	; 0x145a <__fp_splitA>
    1478:	08 c0       	rjmp	.+16     	; 0x148a <__fp_splitA+0x30>
    147a:	16 16       	cp	r1, r22
    147c:	17 06       	cpc	r1, r23
    147e:	18 06       	cpc	r1, r24
    1480:	99 1f       	adc	r25, r25
    1482:	f1 cf       	rjmp	.-30     	; 0x1466 <__fp_splitA+0xc>
    1484:	86 95       	lsr	r24
    1486:	71 05       	cpc	r23, r1
    1488:	61 05       	cpc	r22, r1
    148a:	08 94       	sec
    148c:	08 95       	ret

0000148e <__fp_zero>:
    148e:	e8 94       	clt

00001490 <__fp_szero>:
    1490:	bb 27       	eor	r27, r27
    1492:	66 27       	eor	r22, r22
    1494:	77 27       	eor	r23, r23
    1496:	cb 01       	movw	r24, r22
    1498:	97 f9       	bld	r25, 7
    149a:	08 95       	ret

0000149c <__ftoa_engine>:
    149c:	28 30       	cpi	r18, 0x08	; 8
    149e:	08 f0       	brcs	.+2      	; 0x14a2 <__ftoa_engine+0x6>
    14a0:	27 e0       	ldi	r18, 0x07	; 7
    14a2:	33 27       	eor	r19, r19
    14a4:	da 01       	movw	r26, r20
    14a6:	99 0f       	add	r25, r25
    14a8:	31 1d       	adc	r19, r1
    14aa:	87 fd       	sbrc	r24, 7
    14ac:	91 60       	ori	r25, 0x01	; 1
    14ae:	00 96       	adiw	r24, 0x00	; 0
    14b0:	61 05       	cpc	r22, r1
    14b2:	71 05       	cpc	r23, r1
    14b4:	39 f4       	brne	.+14     	; 0x14c4 <__ftoa_engine+0x28>
    14b6:	32 60       	ori	r19, 0x02	; 2
    14b8:	2e 5f       	subi	r18, 0xFE	; 254
    14ba:	3d 93       	st	X+, r19
    14bc:	30 e3       	ldi	r19, 0x30	; 48
    14be:	2a 95       	dec	r18
    14c0:	e1 f7       	brne	.-8      	; 0x14ba <__ftoa_engine+0x1e>
    14c2:	08 95       	ret
    14c4:	9f 3f       	cpi	r25, 0xFF	; 255
    14c6:	30 f0       	brcs	.+12     	; 0x14d4 <__ftoa_engine+0x38>
    14c8:	80 38       	cpi	r24, 0x80	; 128
    14ca:	71 05       	cpc	r23, r1
    14cc:	61 05       	cpc	r22, r1
    14ce:	09 f0       	breq	.+2      	; 0x14d2 <__ftoa_engine+0x36>
    14d0:	3c 5f       	subi	r19, 0xFC	; 252
    14d2:	3c 5f       	subi	r19, 0xFC	; 252
    14d4:	3d 93       	st	X+, r19
    14d6:	91 30       	cpi	r25, 0x01	; 1
    14d8:	08 f0       	brcs	.+2      	; 0x14dc <__ftoa_engine+0x40>
    14da:	80 68       	ori	r24, 0x80	; 128
    14dc:	91 1d       	adc	r25, r1
    14de:	df 93       	push	r29
    14e0:	cf 93       	push	r28
    14e2:	1f 93       	push	r17
    14e4:	0f 93       	push	r16
    14e6:	ff 92       	push	r15
    14e8:	ef 92       	push	r14
    14ea:	19 2f       	mov	r17, r25
    14ec:	98 7f       	andi	r25, 0xF8	; 248
    14ee:	96 95       	lsr	r25
    14f0:	e9 2f       	mov	r30, r25
    14f2:	96 95       	lsr	r25
    14f4:	96 95       	lsr	r25
    14f6:	e9 0f       	add	r30, r25
    14f8:	ff 27       	eor	r31, r31
    14fa:	e6 53       	subi	r30, 0x36	; 54
    14fc:	ff 4f       	sbci	r31, 0xFF	; 255
    14fe:	99 27       	eor	r25, r25
    1500:	33 27       	eor	r19, r19
    1502:	ee 24       	eor	r14, r14
    1504:	ff 24       	eor	r15, r15
    1506:	a7 01       	movw	r20, r14
    1508:	e7 01       	movw	r28, r14
    150a:	05 90       	lpm	r0, Z+
    150c:	08 94       	sec
    150e:	07 94       	ror	r0
    1510:	28 f4       	brcc	.+10     	; 0x151c <__ftoa_engine+0x80>
    1512:	36 0f       	add	r19, r22
    1514:	e7 1e       	adc	r14, r23
    1516:	f8 1e       	adc	r15, r24
    1518:	49 1f       	adc	r20, r25
    151a:	51 1d       	adc	r21, r1
    151c:	66 0f       	add	r22, r22
    151e:	77 1f       	adc	r23, r23
    1520:	88 1f       	adc	r24, r24
    1522:	99 1f       	adc	r25, r25
    1524:	06 94       	lsr	r0
    1526:	a1 f7       	brne	.-24     	; 0x1510 <__ftoa_engine+0x74>
    1528:	05 90       	lpm	r0, Z+
    152a:	07 94       	ror	r0
    152c:	28 f4       	brcc	.+10     	; 0x1538 <__ftoa_engine+0x9c>
    152e:	e7 0e       	add	r14, r23
    1530:	f8 1e       	adc	r15, r24
    1532:	49 1f       	adc	r20, r25
    1534:	56 1f       	adc	r21, r22
    1536:	c1 1d       	adc	r28, r1
    1538:	77 0f       	add	r23, r23
    153a:	88 1f       	adc	r24, r24
    153c:	99 1f       	adc	r25, r25
    153e:	66 1f       	adc	r22, r22
    1540:	06 94       	lsr	r0
    1542:	a1 f7       	brne	.-24     	; 0x152c <__ftoa_engine+0x90>
    1544:	05 90       	lpm	r0, Z+
    1546:	07 94       	ror	r0
    1548:	28 f4       	brcc	.+10     	; 0x1554 <__ftoa_engine+0xb8>
    154a:	f8 0e       	add	r15, r24
    154c:	49 1f       	adc	r20, r25
    154e:	56 1f       	adc	r21, r22
    1550:	c7 1f       	adc	r28, r23
    1552:	d1 1d       	adc	r29, r1
    1554:	88 0f       	add	r24, r24
    1556:	99 1f       	adc	r25, r25
    1558:	66 1f       	adc	r22, r22
    155a:	77 1f       	adc	r23, r23
    155c:	06 94       	lsr	r0
    155e:	a1 f7       	brne	.-24     	; 0x1548 <__ftoa_engine+0xac>
    1560:	05 90       	lpm	r0, Z+
    1562:	07 94       	ror	r0
    1564:	20 f4       	brcc	.+8      	; 0x156e <__ftoa_engine+0xd2>
    1566:	49 0f       	add	r20, r25
    1568:	56 1f       	adc	r21, r22
    156a:	c7 1f       	adc	r28, r23
    156c:	d8 1f       	adc	r29, r24
    156e:	99 0f       	add	r25, r25
    1570:	66 1f       	adc	r22, r22
    1572:	77 1f       	adc	r23, r23
    1574:	88 1f       	adc	r24, r24
    1576:	06 94       	lsr	r0
    1578:	a9 f7       	brne	.-22     	; 0x1564 <__ftoa_engine+0xc8>
    157a:	84 91       	lpm	r24, Z
    157c:	10 95       	com	r17
    157e:	17 70       	andi	r17, 0x07	; 7
    1580:	41 f0       	breq	.+16     	; 0x1592 <__ftoa_engine+0xf6>
    1582:	d6 95       	lsr	r29
    1584:	c7 95       	ror	r28
    1586:	57 95       	ror	r21
    1588:	47 95       	ror	r20
    158a:	f7 94       	ror	r15
    158c:	e7 94       	ror	r14
    158e:	1a 95       	dec	r17
    1590:	c1 f7       	brne	.-16     	; 0x1582 <__ftoa_engine+0xe6>
    1592:	e0 e7       	ldi	r30, 0x70	; 112
    1594:	f0 e0       	ldi	r31, 0x00	; 0
    1596:	68 94       	set
    1598:	15 90       	lpm	r1, Z+
    159a:	15 91       	lpm	r17, Z+
    159c:	35 91       	lpm	r19, Z+
    159e:	65 91       	lpm	r22, Z+
    15a0:	95 91       	lpm	r25, Z+
    15a2:	05 90       	lpm	r0, Z+
    15a4:	7f e2       	ldi	r23, 0x2F	; 47
    15a6:	73 95       	inc	r23
    15a8:	e1 18       	sub	r14, r1
    15aa:	f1 0a       	sbc	r15, r17
    15ac:	43 0b       	sbc	r20, r19
    15ae:	56 0b       	sbc	r21, r22
    15b0:	c9 0b       	sbc	r28, r25
    15b2:	d0 09       	sbc	r29, r0
    15b4:	c0 f7       	brcc	.-16     	; 0x15a6 <__ftoa_engine+0x10a>
    15b6:	e1 0c       	add	r14, r1
    15b8:	f1 1e       	adc	r15, r17
    15ba:	43 1f       	adc	r20, r19
    15bc:	56 1f       	adc	r21, r22
    15be:	c9 1f       	adc	r28, r25
    15c0:	d0 1d       	adc	r29, r0
    15c2:	7e f4       	brtc	.+30     	; 0x15e2 <__ftoa_engine+0x146>
    15c4:	70 33       	cpi	r23, 0x30	; 48
    15c6:	11 f4       	brne	.+4      	; 0x15cc <__ftoa_engine+0x130>
    15c8:	8a 95       	dec	r24
    15ca:	e6 cf       	rjmp	.-52     	; 0x1598 <__ftoa_engine+0xfc>
    15cc:	e8 94       	clt
    15ce:	01 50       	subi	r16, 0x01	; 1
    15d0:	30 f0       	brcs	.+12     	; 0x15de <__ftoa_engine+0x142>
    15d2:	08 0f       	add	r16, r24
    15d4:	0a f4       	brpl	.+2      	; 0x15d8 <__ftoa_engine+0x13c>
    15d6:	00 27       	eor	r16, r16
    15d8:	02 17       	cp	r16, r18
    15da:	08 f4       	brcc	.+2      	; 0x15de <__ftoa_engine+0x142>
    15dc:	20 2f       	mov	r18, r16
    15de:	23 95       	inc	r18
    15e0:	02 2f       	mov	r16, r18
    15e2:	7a 33       	cpi	r23, 0x3A	; 58
    15e4:	28 f0       	brcs	.+10     	; 0x15f0 <__ftoa_engine+0x154>
    15e6:	79 e3       	ldi	r23, 0x39	; 57
    15e8:	7d 93       	st	X+, r23
    15ea:	2a 95       	dec	r18
    15ec:	e9 f7       	brne	.-6      	; 0x15e8 <__ftoa_engine+0x14c>
    15ee:	10 c0       	rjmp	.+32     	; 0x1610 <__ftoa_engine+0x174>
    15f0:	7d 93       	st	X+, r23
    15f2:	2a 95       	dec	r18
    15f4:	89 f6       	brne	.-94     	; 0x1598 <__ftoa_engine+0xfc>
    15f6:	06 94       	lsr	r0
    15f8:	97 95       	ror	r25
    15fa:	67 95       	ror	r22
    15fc:	37 95       	ror	r19
    15fe:	17 95       	ror	r17
    1600:	17 94       	ror	r1
    1602:	e1 18       	sub	r14, r1
    1604:	f1 0a       	sbc	r15, r17
    1606:	43 0b       	sbc	r20, r19
    1608:	56 0b       	sbc	r21, r22
    160a:	c9 0b       	sbc	r28, r25
    160c:	d0 09       	sbc	r29, r0
    160e:	98 f0       	brcs	.+38     	; 0x1636 <__ftoa_engine+0x19a>
    1610:	23 95       	inc	r18
    1612:	7e 91       	ld	r23, -X
    1614:	73 95       	inc	r23
    1616:	7a 33       	cpi	r23, 0x3A	; 58
    1618:	08 f0       	brcs	.+2      	; 0x161c <__ftoa_engine+0x180>
    161a:	70 e3       	ldi	r23, 0x30	; 48
    161c:	7c 93       	st	X, r23
    161e:	20 13       	cpse	r18, r16
    1620:	b8 f7       	brcc	.-18     	; 0x1610 <__ftoa_engine+0x174>
    1622:	7e 91       	ld	r23, -X
    1624:	70 61       	ori	r23, 0x10	; 16
    1626:	7d 93       	st	X+, r23
    1628:	30 f0       	brcs	.+12     	; 0x1636 <__ftoa_engine+0x19a>
    162a:	83 95       	inc	r24
    162c:	71 e3       	ldi	r23, 0x31	; 49
    162e:	7d 93       	st	X+, r23
    1630:	70 e3       	ldi	r23, 0x30	; 48
    1632:	2a 95       	dec	r18
    1634:	e1 f7       	brne	.-8      	; 0x162e <__ftoa_engine+0x192>
    1636:	11 24       	eor	r1, r1
    1638:	ef 90       	pop	r14
    163a:	ff 90       	pop	r15
    163c:	0f 91       	pop	r16
    163e:	1f 91       	pop	r17
    1640:	cf 91       	pop	r28
    1642:	df 91       	pop	r29
    1644:	99 27       	eor	r25, r25
    1646:	87 fd       	sbrc	r24, 7
    1648:	90 95       	com	r25
    164a:	08 95       	ret

0000164c <isspace>:
    164c:	91 11       	cpse	r25, r1
    164e:	0c 94 3c 0c 	jmp	0x1878	; 0x1878 <__ctype_isfalse>
    1652:	80 32       	cpi	r24, 0x20	; 32
    1654:	19 f0       	breq	.+6      	; 0x165c <isspace+0x10>
    1656:	89 50       	subi	r24, 0x09	; 9
    1658:	85 50       	subi	r24, 0x05	; 5
    165a:	c8 f7       	brcc	.-14     	; 0x164e <isspace+0x2>
    165c:	08 95       	ret

0000165e <tolower>:
    165e:	91 11       	cpse	r25, r1
    1660:	08 95       	ret
    1662:	81 54       	subi	r24, 0x41	; 65
    1664:	8a 51       	subi	r24, 0x1A	; 26
    1666:	08 f4       	brcc	.+2      	; 0x166a <tolower+0xc>
    1668:	80 5e       	subi	r24, 0xE0	; 224
    166a:	85 5a       	subi	r24, 0xA5	; 165
    166c:	08 95       	ret

0000166e <strchr_P>:
    166e:	fc 01       	movw	r30, r24
    1670:	05 90       	lpm	r0, Z+
    1672:	06 16       	cp	r0, r22
    1674:	21 f0       	breq	.+8      	; 0x167e <strchr_P+0x10>
    1676:	00 20       	and	r0, r0
    1678:	d9 f7       	brne	.-10     	; 0x1670 <strchr_P+0x2>
    167a:	c0 01       	movw	r24, r0
    167c:	08 95       	ret
    167e:	31 97       	sbiw	r30, 0x01	; 1
    1680:	cf 01       	movw	r24, r30
    1682:	08 95       	ret

00001684 <strnlen_P>:
    1684:	fc 01       	movw	r30, r24
    1686:	05 90       	lpm	r0, Z+
    1688:	61 50       	subi	r22, 0x01	; 1
    168a:	70 40       	sbci	r23, 0x00	; 0
    168c:	01 10       	cpse	r0, r1
    168e:	d8 f7       	brcc	.-10     	; 0x1686 <strnlen_P+0x2>
    1690:	80 95       	com	r24
    1692:	90 95       	com	r25
    1694:	8e 0f       	add	r24, r30
    1696:	9f 1f       	adc	r25, r31
    1698:	08 95       	ret

0000169a <strnlen>:
    169a:	fc 01       	movw	r30, r24
    169c:	61 50       	subi	r22, 0x01	; 1
    169e:	70 40       	sbci	r23, 0x00	; 0
    16a0:	01 90       	ld	r0, Z+
    16a2:	01 10       	cpse	r0, r1
    16a4:	d8 f7       	brcc	.-10     	; 0x169c <strnlen+0x2>
    16a6:	80 95       	com	r24
    16a8:	90 95       	com	r25
    16aa:	8e 0f       	add	r24, r30
    16ac:	9f 1f       	adc	r25, r31
    16ae:	08 95       	ret

000016b0 <fgetc>:
    16b0:	cf 93       	push	r28
    16b2:	df 93       	push	r29
    16b4:	ec 01       	movw	r28, r24
    16b6:	8b 81       	ldd	r24, Y+3	; 0x03
    16b8:	80 ff       	sbrs	r24, 0
    16ba:	33 c0       	rjmp	.+102    	; 0x1722 <fgetc+0x72>
    16bc:	86 ff       	sbrs	r24, 6
    16be:	0c c0       	rjmp	.+24     	; 0x16d8 <fgetc+0x28>
    16c0:	8f 7b       	andi	r24, 0xBF	; 191
    16c2:	8b 83       	std	Y+3, r24	; 0x03
    16c4:	8e 81       	ldd	r24, Y+6	; 0x06
    16c6:	9f 81       	ldd	r25, Y+7	; 0x07
    16c8:	01 96       	adiw	r24, 0x01	; 1
    16ca:	9f 83       	std	Y+7, r25	; 0x07
    16cc:	8e 83       	std	Y+6, r24	; 0x06
    16ce:	8a 81       	ldd	r24, Y+2	; 0x02
    16d0:	90 e0       	ldi	r25, 0x00	; 0
    16d2:	df 91       	pop	r29
    16d4:	cf 91       	pop	r28
    16d6:	08 95       	ret
    16d8:	82 ff       	sbrs	r24, 2
    16da:	15 c0       	rjmp	.+42     	; 0x1706 <fgetc+0x56>
    16dc:	e8 81       	ld	r30, Y
    16de:	f9 81       	ldd	r31, Y+1	; 0x01
    16e0:	90 81       	ld	r25, Z
    16e2:	29 2f       	mov	r18, r25
    16e4:	09 2e       	mov	r0, r25
    16e6:	00 0c       	add	r0, r0
    16e8:	33 0b       	sbc	r19, r19
    16ea:	80 62       	ori	r24, 0x20	; 32
    16ec:	99 23       	and	r25, r25
    16ee:	c1 f0       	breq	.+48     	; 0x1720 <fgetc+0x70>
    16f0:	31 96       	adiw	r30, 0x01	; 1
    16f2:	f9 83       	std	Y+1, r31	; 0x01
    16f4:	e8 83       	st	Y, r30
    16f6:	8e 81       	ldd	r24, Y+6	; 0x06
    16f8:	9f 81       	ldd	r25, Y+7	; 0x07
    16fa:	01 96       	adiw	r24, 0x01	; 1
    16fc:	9f 83       	std	Y+7, r25	; 0x07
    16fe:	8e 83       	std	Y+6, r24	; 0x06
    1700:	c9 01       	movw	r24, r18
    1702:	99 27       	eor	r25, r25
    1704:	e6 cf       	rjmp	.-52     	; 0x16d2 <fgetc+0x22>
    1706:	ea 85       	ldd	r30, Y+10	; 0x0a
    1708:	fb 85       	ldd	r31, Y+11	; 0x0b
    170a:	ce 01       	movw	r24, r28
    170c:	09 95       	icall
    170e:	9c 01       	movw	r18, r24
    1710:	97 ff       	sbrs	r25, 7
    1712:	f1 cf       	rjmp	.-30     	; 0x16f6 <fgetc+0x46>
    1714:	8b 81       	ldd	r24, Y+3	; 0x03
    1716:	2f 3f       	cpi	r18, 0xFF	; 255
    1718:	3f 4f       	sbci	r19, 0xFF	; 255
    171a:	31 f0       	breq	.+12     	; 0x1728 <fgetc+0x78>
    171c:	90 e2       	ldi	r25, 0x20	; 32
    171e:	89 2b       	or	r24, r25
    1720:	8b 83       	std	Y+3, r24	; 0x03
    1722:	8f ef       	ldi	r24, 0xFF	; 255
    1724:	9f ef       	ldi	r25, 0xFF	; 255
    1726:	d5 cf       	rjmp	.-86     	; 0x16d2 <fgetc+0x22>
    1728:	90 e1       	ldi	r25, 0x10	; 16
    172a:	f9 cf       	rjmp	.-14     	; 0x171e <fgetc+0x6e>

0000172c <fputc>:
    172c:	0f 93       	push	r16
    172e:	1f 93       	push	r17
    1730:	cf 93       	push	r28
    1732:	df 93       	push	r29
    1734:	18 2f       	mov	r17, r24
    1736:	09 2f       	mov	r16, r25
    1738:	eb 01       	movw	r28, r22
    173a:	8b 81       	ldd	r24, Y+3	; 0x03
    173c:	81 fd       	sbrc	r24, 1
    173e:	09 c0       	rjmp	.+18     	; 0x1752 <fputc+0x26>
    1740:	1f ef       	ldi	r17, 0xFF	; 255
    1742:	0f ef       	ldi	r16, 0xFF	; 255
    1744:	81 2f       	mov	r24, r17
    1746:	90 2f       	mov	r25, r16
    1748:	df 91       	pop	r29
    174a:	cf 91       	pop	r28
    174c:	1f 91       	pop	r17
    174e:	0f 91       	pop	r16
    1750:	08 95       	ret
    1752:	82 ff       	sbrs	r24, 2
    1754:	14 c0       	rjmp	.+40     	; 0x177e <fputc+0x52>
    1756:	2e 81       	ldd	r18, Y+6	; 0x06
    1758:	3f 81       	ldd	r19, Y+7	; 0x07
    175a:	8c 81       	ldd	r24, Y+4	; 0x04
    175c:	9d 81       	ldd	r25, Y+5	; 0x05
    175e:	28 17       	cp	r18, r24
    1760:	39 07       	cpc	r19, r25
    1762:	3c f4       	brge	.+14     	; 0x1772 <fputc+0x46>
    1764:	e8 81       	ld	r30, Y
    1766:	f9 81       	ldd	r31, Y+1	; 0x01
    1768:	cf 01       	movw	r24, r30
    176a:	01 96       	adiw	r24, 0x01	; 1
    176c:	99 83       	std	Y+1, r25	; 0x01
    176e:	88 83       	st	Y, r24
    1770:	10 83       	st	Z, r17
    1772:	8e 81       	ldd	r24, Y+6	; 0x06
    1774:	9f 81       	ldd	r25, Y+7	; 0x07
    1776:	01 96       	adiw	r24, 0x01	; 1
    1778:	9f 83       	std	Y+7, r25	; 0x07
    177a:	8e 83       	std	Y+6, r24	; 0x06
    177c:	e3 cf       	rjmp	.-58     	; 0x1744 <fputc+0x18>
    177e:	e8 85       	ldd	r30, Y+8	; 0x08
    1780:	f9 85       	ldd	r31, Y+9	; 0x09
    1782:	81 2f       	mov	r24, r17
    1784:	09 95       	icall
    1786:	89 2b       	or	r24, r25
    1788:	a1 f3       	breq	.-24     	; 0x1772 <fputc+0x46>
    178a:	da cf       	rjmp	.-76     	; 0x1740 <fputc+0x14>

0000178c <ungetc>:
    178c:	fb 01       	movw	r30, r22
    178e:	23 81       	ldd	r18, Z+3	; 0x03
    1790:	20 ff       	sbrs	r18, 0
    1792:	11 c0       	rjmp	.+34     	; 0x17b6 <ungetc+0x2a>
    1794:	26 fd       	sbrc	r18, 6
    1796:	0f c0       	rjmp	.+30     	; 0x17b6 <ungetc+0x2a>
    1798:	8f 3f       	cpi	r24, 0xFF	; 255
    179a:	98 07       	cpc	r25, r24
    179c:	71 f0       	breq	.+28     	; 0x17ba <ungetc+0x2e>
    179e:	82 83       	std	Z+2, r24	; 0x02
    17a0:	2f 7d       	andi	r18, 0xDF	; 223
    17a2:	20 64       	ori	r18, 0x40	; 64
    17a4:	23 83       	std	Z+3, r18	; 0x03
    17a6:	26 81       	ldd	r18, Z+6	; 0x06
    17a8:	37 81       	ldd	r19, Z+7	; 0x07
    17aa:	21 50       	subi	r18, 0x01	; 1
    17ac:	31 09       	sbc	r19, r1
    17ae:	37 83       	std	Z+7, r19	; 0x07
    17b0:	26 83       	std	Z+6, r18	; 0x06
    17b2:	99 27       	eor	r25, r25
    17b4:	08 95       	ret
    17b6:	8f ef       	ldi	r24, 0xFF	; 255
    17b8:	9f ef       	ldi	r25, 0xFF	; 255
    17ba:	08 95       	ret

000017bc <__ultoa_invert>:
    17bc:	fa 01       	movw	r30, r20
    17be:	aa 27       	eor	r26, r26
    17c0:	28 30       	cpi	r18, 0x08	; 8
    17c2:	51 f1       	breq	.+84     	; 0x1818 <__ultoa_invert+0x5c>
    17c4:	20 31       	cpi	r18, 0x10	; 16
    17c6:	81 f1       	breq	.+96     	; 0x1828 <__ultoa_invert+0x6c>
    17c8:	e8 94       	clt
    17ca:	6f 93       	push	r22
    17cc:	6e 7f       	andi	r22, 0xFE	; 254
    17ce:	6e 5f       	subi	r22, 0xFE	; 254
    17d0:	7f 4f       	sbci	r23, 0xFF	; 255
    17d2:	8f 4f       	sbci	r24, 0xFF	; 255
    17d4:	9f 4f       	sbci	r25, 0xFF	; 255
    17d6:	af 4f       	sbci	r26, 0xFF	; 255
    17d8:	b1 e0       	ldi	r27, 0x01	; 1
    17da:	3e d0       	rcall	.+124    	; 0x1858 <__ultoa_invert+0x9c>
    17dc:	b4 e0       	ldi	r27, 0x04	; 4
    17de:	3c d0       	rcall	.+120    	; 0x1858 <__ultoa_invert+0x9c>
    17e0:	67 0f       	add	r22, r23
    17e2:	78 1f       	adc	r23, r24
    17e4:	89 1f       	adc	r24, r25
    17e6:	9a 1f       	adc	r25, r26
    17e8:	a1 1d       	adc	r26, r1
    17ea:	68 0f       	add	r22, r24
    17ec:	79 1f       	adc	r23, r25
    17ee:	8a 1f       	adc	r24, r26
    17f0:	91 1d       	adc	r25, r1
    17f2:	a1 1d       	adc	r26, r1
    17f4:	6a 0f       	add	r22, r26
    17f6:	71 1d       	adc	r23, r1
    17f8:	81 1d       	adc	r24, r1
    17fa:	91 1d       	adc	r25, r1
    17fc:	a1 1d       	adc	r26, r1
    17fe:	20 d0       	rcall	.+64     	; 0x1840 <__ultoa_invert+0x84>
    1800:	09 f4       	brne	.+2      	; 0x1804 <__ultoa_invert+0x48>
    1802:	68 94       	set
    1804:	3f 91       	pop	r19
    1806:	2a e0       	ldi	r18, 0x0A	; 10
    1808:	26 9f       	mul	r18, r22
    180a:	11 24       	eor	r1, r1
    180c:	30 19       	sub	r19, r0
    180e:	30 5d       	subi	r19, 0xD0	; 208
    1810:	31 93       	st	Z+, r19
    1812:	de f6       	brtc	.-74     	; 0x17ca <__ultoa_invert+0xe>
    1814:	cf 01       	movw	r24, r30
    1816:	08 95       	ret
    1818:	46 2f       	mov	r20, r22
    181a:	47 70       	andi	r20, 0x07	; 7
    181c:	40 5d       	subi	r20, 0xD0	; 208
    181e:	41 93       	st	Z+, r20
    1820:	b3 e0       	ldi	r27, 0x03	; 3
    1822:	0f d0       	rcall	.+30     	; 0x1842 <__ultoa_invert+0x86>
    1824:	c9 f7       	brne	.-14     	; 0x1818 <__ultoa_invert+0x5c>
    1826:	f6 cf       	rjmp	.-20     	; 0x1814 <__ultoa_invert+0x58>
    1828:	46 2f       	mov	r20, r22
    182a:	4f 70       	andi	r20, 0x0F	; 15
    182c:	40 5d       	subi	r20, 0xD0	; 208
    182e:	4a 33       	cpi	r20, 0x3A	; 58
    1830:	18 f0       	brcs	.+6      	; 0x1838 <__ultoa_invert+0x7c>
    1832:	49 5d       	subi	r20, 0xD9	; 217
    1834:	31 fd       	sbrc	r19, 1
    1836:	40 52       	subi	r20, 0x20	; 32
    1838:	41 93       	st	Z+, r20
    183a:	02 d0       	rcall	.+4      	; 0x1840 <__ultoa_invert+0x84>
    183c:	a9 f7       	brne	.-22     	; 0x1828 <__ultoa_invert+0x6c>
    183e:	ea cf       	rjmp	.-44     	; 0x1814 <__ultoa_invert+0x58>
    1840:	b4 e0       	ldi	r27, 0x04	; 4
    1842:	a6 95       	lsr	r26
    1844:	97 95       	ror	r25
    1846:	87 95       	ror	r24
    1848:	77 95       	ror	r23
    184a:	67 95       	ror	r22
    184c:	ba 95       	dec	r27
    184e:	c9 f7       	brne	.-14     	; 0x1842 <__ultoa_invert+0x86>
    1850:	00 97       	sbiw	r24, 0x00	; 0
    1852:	61 05       	cpc	r22, r1
    1854:	71 05       	cpc	r23, r1
    1856:	08 95       	ret
    1858:	9b 01       	movw	r18, r22
    185a:	ac 01       	movw	r20, r24
    185c:	0a 2e       	mov	r0, r26
    185e:	06 94       	lsr	r0
    1860:	57 95       	ror	r21
    1862:	47 95       	ror	r20
    1864:	37 95       	ror	r19
    1866:	27 95       	ror	r18
    1868:	ba 95       	dec	r27
    186a:	c9 f7       	brne	.-14     	; 0x185e <__ultoa_invert+0xa2>
    186c:	62 0f       	add	r22, r18
    186e:	73 1f       	adc	r23, r19
    1870:	84 1f       	adc	r24, r20
    1872:	95 1f       	adc	r25, r21
    1874:	a0 1d       	adc	r26, r0
    1876:	08 95       	ret

00001878 <__ctype_isfalse>:
    1878:	99 27       	eor	r25, r25
    187a:	88 27       	eor	r24, r24

0000187c <__ctype_istrue>:
    187c:	08 95       	ret

0000187e <_exit>:
    187e:	f8 94       	cli

00001880 <__stop_program>:
    1880:	ff cf       	rjmp	.-2      	; 0x1880 <__stop_program>
